(dp0
S'cookies'
p1
(dp2
S'wxloadtime'
p3
S'1509521452_expired'
p4
sS'webwx_data_ticket'
p5
S'gSeev+J3uDM+N1v+f+vZwRju'
p6
sS'wxuin'
p7
S'915021977'
p8
sS'login_frequency'
p9
S'2'
p10
sS'MM_WX_NOTIFY_STATE'
p11
S'1'
p12
sS'MM_WX_SOUND_STATE'
p13
g12
sS'webwx_auth_ticket'
p14
S'CIsBEJzF0egBGoABl7qNJRtGwYGX9isDFMzcR9jg5UGOC3yzxev4TAzDBUxlPNqyZkbhgMuHJBgE9eXCo6H214YVD2t+EAF+vCaZjjXgxX3i19JVLplpviBNe9UPnG2eHOTmse6H2BG15z/gxHVCWIqfytPlQV/lVaXig+WSHKSGBClQnwAXwiUt2bo='
p15
sS'last_wxuin'
p16
S'915021977'
p17
sS'webwxuvid'
p18
S'1859eb4a75c64b7a195e5e953d9a5f69bf3555957c73099e47f8cd219d086023993e3b603836945ac0d845ce548b9c0a'
p19
sS'wxpluginkey'
p20
S'1509505275'
p21
sS'wxsid'
p22
S'sxRSe3JAGEaCL2Jx'
p23
sS'mm_lang'
p24
S'zh_CN'
p25
ssS'version'
p26
S'1.2.32'
p27
sS'storage'
p28
(dp29
S'userName'
p30
V@7e738e293f64f911d09797b51f27bae6d73226c206c89cb2a70e2c07650a761f
p31
sS'lastInputUserName'
p32
NsS'memberList'
p33
(lp34
(dp35
S'UserName'
p36
g31
sS'City'
p37
S''
p38
sS'DisplayName'
p39
g38
sS'UniFriend'
p40
I0
sS'OwnerUin'
p41
I0
sS'MemberList'
p42
(lp43
sS'PYQuanPin'
p44
V
p45
sS'RemarkPYInitial'
p46
g45
sS'Uin'
p47
I915021977
sS'AppAccountFlag'
p48
I0
sS'VerifyFlag'
p49
I0
sS'Province'
p50
g38
sS'KeyWord'
p51
g38
sS'RemarkName'
p52
g45
sS'PYInitial'
p53
g45
sS'ChatRoomId'
p54
I0
sS'HideInputBarFlag'
p55
I0
sVHeadImgFlag
p56
I1
sS'EncryChatRoomId'
p57
g38
sS'AttrStatus'
p58
I0
sS'SnsFlag'
p59
I1
sS'MemberCount'
p60
I0
sVWebWxPluginSwitch
p61
I0
sS'Alias'
p62
g38
sS'Signature'
p63
g45
sS'ContactFlag'
p64
I0
sS'NickName'
p65
V\u79cb\u5929
p66
sS'RemarkPYQuanPin'
p67
g45
sS'HeadImgUrl'
p68
V/cgi-bin/mmwebwx-bin/webwxgeticon?seq=1926584908&username=@7e738e293f64f911d09797b51f27bae6d73226c206c89cb2a70e2c07650a761f&skey=@crypt_43ab139a_5213e1e2477146c575d9cc45804e06ae
p69
sS'Sex'
p70
I1
sS'StarFriend'
p71
I0
sS'Statues'
p72
I0
sa(dp73
VUserName
p74
V@9b53caaa8a8a16b702eb1b50cc659b400e04a0d4f51325679f76c0660caf02f2
p75
sVCity
p76
V\u5e7f\u5dde
p77
sVDisplayName
p78
g45
sVUniFriend
p79
I0
sVMemberList
p80
(lp81
sVPYQuanPin
p82
Vliangyufenxiaojitongdingzhikaifa
p83
sVRemarkPYInitial
p84
g45
sVSex
p85
I2
sVAppAccountFlag
p86
I0
sVVerifyFlag
p87
I0
sVProvince
p88
V\u5e7f\u4e1c
p89
sVKeyWord
p90
g45
sVRemarkName
p91
g45
sVPYInitial
p92
VLYFXJTDZKF
p93
sVIsOwner
p94
I0
sVChatRoomId
p95
I0
sVHideInputBarFlag
p96
I0
sVEncryChatRoomId
p97
g45
sVAttrStatus
p98
I2147586149
sVSnsFlag
p99
I17
sVMemberCount
p100
I0
sVOwnerUin
p101
I0
sVAlias
p102
g45
sVSignature
p103
V\u6eaf\u6e90\u7cfb\u7edf\u3001\u5fae\u5546\u7ba1\u7406\u7cfb\u7edf\u3001\u6e20\u9053\u7ba1\u63a7\u7cfb\u7edf\u300115013053356
p104
sVContactFlag
p105
I515
sVNickName
p106
V\uff08\u6881\u9c7c\uff09\u5206\u9500\u7cfb\u7edf\u5b9a\u5236\u5f00\u53d1
p107
sVRemarkPYQuanPin
p108
g45
sVHeadImgUrl
p109
V/cgi-bin/mmwebwx-bin/webwxgeticon?seq=663191953&username=@9b53caaa8a8a16b702eb1b50cc659b400e04a0d4f51325679f76c0660caf02f2&skey=@crypt_43ab139a_5213e1e2477146c575d9cc45804e06ae
p110
sVUin
p111
I0
sVStarFriend
p112
I0
sVStatues
p113
I0
sa(dp114
VUserName
p115
V@9f2b4009bcdc08b3a08a5a29ba5fd94fb7a9951eadbb8e2bedfa7fa6e1cff03c
p116
sVCity
p117
V\u6c88\u9633
p118
sVDisplayName
p119
g45
sVUniFriend
p120
I0
sVMemberList
p121
(lp122
sVPYQuanPin
p123
Vsendemenye
p124
sVRemarkPYInitial
p125
g45
sVSex
p126
I2
sVAppAccountFlag
p127
I0
sVVerifyFlag
p128
I0
sVProvince
p129
V\u8fbd\u5b81
p130
sVKeyWord
p131
g45
sVRemarkName
p132
g45
sVPYInitial
p133
VSDMY
p134
sVIsOwner
p135
I0
sVChatRoomId
p136
I0
sVHideInputBarFlag
p137
I0
sVEncryChatRoomId
p138
g45
sVAttrStatus
p139
I102693
sVSnsFlag
p140
I1
sVMemberCount
p141
I0
sVOwnerUin
p142
I0
sVAlias
p143
g45
sVSignature
p144
Vzcvbnmnvvv. ,\u3002
p145
sVContactFlag
p146
I3
sVNickName
p147
V\u68ee\u7684\u95e8\u4e1a
p148
sVRemarkPYQuanPin
p149
g45
sVHeadImgUrl
p150
V/cgi-bin/mmwebwx-bin/webwxgeticon?seq=660211128&username=@9f2b4009bcdc08b3a08a5a29ba5fd94fb7a9951eadbb8e2bedfa7fa6e1cff03c&skey=@crypt_43ab139a_5213e1e2477146c575d9cc45804e06ae
p151
sVUin
p152
I0
sVStarFriend
p153
I0
sVStatues
p154
I0
sa(dp155
VUserName
p156
V@a07392af5b9867b5c4856ccb753a8d137e4641f9aa0e0253d5ea510d85d85ecb
p157
sVCity
p158
V\u4e5d\u6c5f
p159
sVDisplayName
p160
g45
sVUniFriend
p161
I0
sVMemberList
p162
(lp163
sVPYQuanPin
p164
VaXymjzl
p165
sVRemarkPYInitial
p166
g45
sVSex
p167
I1
sVAppAccountFlag
p168
I0
sVVerifyFlag
p169
I0
sVProvince
p170
V\u6c5f\u897f
p171
sVKeyWord
p172
g45
sVRemarkName
p173
g45
sVPYInitial
p174
VAXYMJZL
p175
sVIsOwner
p176
I0
sVChatRoomId
p177
I0
sVHideInputBarFlag
p178
I0
sVEncryChatRoomId
p179
g45
sVAttrStatus
p180
I13157
sVSnsFlag
p181
I17
sVMemberCount
p182
I0
sVOwnerUin
p183
I0
sVAlias
p184
g45
sVSignature
p185
g45
sVContactFlag
p186
I3
sVNickName
p187
Va---Xymjzl
p188
sVRemarkPYQuanPin
p189
g45
sVHeadImgUrl
p190
V/cgi-bin/mmwebwx-bin/webwxgeticon?seq=660212076&username=@a07392af5b9867b5c4856ccb753a8d137e4641f9aa0e0253d5ea510d85d85ecb&skey=@crypt_43ab139a_5213e1e2477146c575d9cc45804e06ae
p191
sVUin
p192
I0
sVStarFriend
p193
I0
sVStatues
p194
I0
sa(dp195
VUserName
p196
V@57cd46f196393c10201fe84686cab7af288c3e995563a44581172fae132a2789
p197
sVCity
p198
V\u6cc9\u5dde
p199
sVDisplayName
p200
g45
sVUniFriend
p201
I0
sVMemberList
p202
(lp203
sVPYQuanPin
p204
VxiaoqingX1650
p205
sVRemarkPYInitial
p206
g45
sVSex
p207
I2
sVAppAccountFlag
p208
I0
sVVerifyFlag
p209
I0
sVProvince
p210
V\u798f\u5efa
p211
sVKeyWord
p212
g45
sVRemarkName
p213
g45
sVPYInitial
p214
VXQX1650
p215
sVIsOwner
p216
I0
sVChatRoomId
p217
I0
sVHideInputBarFlag
p218
I0
sVEncryChatRoomId
p219
g45
sVAttrStatus
p220
I102501
sVSnsFlag
p221
I1
sVMemberCount
p222
I0
sVOwnerUin
p223
I0
sVAlias
p224
g45
sVSignature
p225
V\u5f88\u591a\u65f6\u5019\u5728\u5fd9\uff0c\u5982\u6ca1\u80fd\u53ca\u65f6\u56de\u590d\u60a8\u7684\u4fe1\u606f\uff0c\u4e00\u4f1a\u513f\u770b\u5230\u4f1a\u56de\u590d\u60a8\u7684\u54e6
p226
sVContactFlag
p227
I515
sVNickName
p228
V\u5c0f\u6e05X16-50
p229
sVRemarkPYQuanPin
p230
g45
sVHeadImgUrl
p231
V/cgi-bin/mmwebwx-bin/webwxgeticon?seq=660212056&username=@57cd46f196393c10201fe84686cab7af288c3e995563a44581172fae132a2789&skey=@crypt_43ab139a_5213e1e2477146c575d9cc45804e06ae
p232
sVUin
p233
I0
sVStarFriend
p234
I0
sVStatues
p235
I0
sa(dp236
VUserName
p237
V@05736701d408f109f0b2cbbd79632b630a2508683b9658eb130565ab836f67f5
p238
sVCity
p239
V\u6c5f\u95e8
p240
sVDisplayName
p241
g45
sVUniFriend
p242
I0
sVMemberList
p243
(lp244
sVPYQuanPin
p245
VlinyanqunYan
p246
sVRemarkPYInitial
p247
g45
sVSex
p248
I2
sVAppAccountFlag
p249
I0
sVVerifyFlag
p250
I0
sVProvince
p251
V\u5e7f\u4e1c
p252
sVKeyWord
p253
g45
sVRemarkName
p254
g45
sVPYInitial
p255
VLYQYAN
p256
sVIsOwner
p257
I0
sVChatRoomId
p258
I0
sVHideInputBarFlag
p259
I0
sVEncryChatRoomId
p260
g45
sVAttrStatus
p261
I4430629
sVSnsFlag
p262
I1
sVMemberCount
p263
I0
sVOwnerUin
p264
I0
sVAlias
p265
g45
sVSignature
p266
V\u771f\u751f\u6d3b\uff0c\u771f\u4f19\u4f34
p267
sVContactFlag
p268
I3
sVNickName
p269
V\u6797\u96c1\u7fa4-Yan
p270
sVRemarkPYQuanPin
p271
g45
sVHeadImgUrl
p272
V/cgi-bin/mmwebwx-bin/webwxgeticon?seq=660210576&username=@05736701d408f109f0b2cbbd79632b630a2508683b9658eb130565ab836f67f5&skey=@crypt_43ab139a_5213e1e2477146c575d9cc45804e06ae
p273
sVUin
p274
I0
sVStarFriend
p275
I0
sVStatues
p276
I0
sa(dp277
VUserName
p278
V@d6d0384c3747792406b7d02af1d9c9b9f70d48272b78839080494e090a3ed118
p279
sVCity
p280
g45
sVDisplayName
p281
g45
sVUniFriend
p282
I0
sVMemberList
p283
(lp284
sVPYQuanPin
p285
Vxiatian
p286
sVRemarkPYInitial
p287
g45
sVSex
p288
I0
sVAppAccountFlag
p289
I0
sVVerifyFlag
p290
I0
sVProvince
p291
g45
sVKeyWord
p292
g45
sVRemarkName
p293
g45
sVPYInitial
p294
VXT
p295
sVIsOwner
p296
I0
sVChatRoomId
p297
I0
sVHideInputBarFlag
p298
I0
sVEncryChatRoomId
p299
g45
sVAttrStatus
p300
I135205
sVSnsFlag
p301
I0
sVMemberCount
p302
I0
sVOwnerUin
p303
I0
sVAlias
p304
g45
sVSignature
p305
g45
sVContactFlag
p306
I3
sVNickName
p307
V\u590f\u5929
p308
sVRemarkPYQuanPin
p309
g45
sVHeadImgUrl
p310
V/cgi-bin/mmwebwx-bin/webwxgeticon?seq=663181319&username=@d6d0384c3747792406b7d02af1d9c9b9f70d48272b78839080494e090a3ed118&skey=@crypt_43ab139a_5213e1e2477146c575d9cc45804e06ae
p311
sVUin
p312
I0
sVStarFriend
p313
I0
sVStatues
p314
I0
sa(dp315
VUserName
p316
V@dd06a504a9e9676858d249b5408dcac9bd2427ea67a8ffd93a8aa1ee56e1cc65
p317
sVCity
p318
V\u4e2d\u5c71
p319
sVDisplayName
p320
g45
sVUniFriend
p321
I0
sVMemberList
p322
(lp323
sVPYQuanPin
p324
Vfengyuguohou
p325
sVRemarkPYInitial
p326
g45
sVSex
p327
I2
sVAppAccountFlag
p328
I0
sVVerifyFlag
p329
I0
sVProvince
p330
V\u5e7f\u4e1c
p331
sVKeyWord
p332
g45
sVRemarkName
p333
g45
sVPYInitial
p334
VFYGH
p335
sVIsOwner
p336
I0
sVChatRoomId
p337
I0
sVHideInputBarFlag
p338
I0
sVEncryChatRoomId
p339
g45
sVAttrStatus
p340
I102437
sVSnsFlag
p341
I1
sVMemberCount
p342
I0
sVOwnerUin
p343
I0
sVAlias
p344
g45
sVSignature
p345
V\u6211\u662f\u4e00\u4e2a\u6709\u6545\u4e8b\u7684\u5973\u4eba
p346
sVContactFlag
p347
I3
sVNickName
p348
V\u98ce\u96e8\u8fc7\u540e
p349
sVRemarkPYQuanPin
p350
g45
sVHeadImgUrl
p351
V/cgi-bin/mmwebwx-bin/webwxgeticon?seq=663182694&username=@dd06a504a9e9676858d249b5408dcac9bd2427ea67a8ffd93a8aa1ee56e1cc65&skey=@crypt_43ab139a_5213e1e2477146c575d9cc45804e06ae
p352
sVUin
p353
I0
sVStarFriend
p354
I0
sVStatues
p355
I0
sa(dp356
VUserName
p357
V@70df3c37f10ce978afe97473a775b441
p358
sVCity
p359
V\u676d\u5dde
p360
sVDisplayName
p361
g45
sVUniFriend
p362
I0
sVMemberList
p363
(lp364
sVPYQuanPin
p365
Vakai
p366
sVRemarkPYInitial
p367
g45
sVSex
p368
I1
sVAppAccountFlag
p369
I0
sVVerifyFlag
p370
I0
sVProvince
p371
V\u6d59\u6c5f
p372
sVKeyWord
p373
Vpan
p374
sVRemarkName
p375
g45
sVPYInitial
p376
VAK
p377
sVIsOwner
p378
I0
sVChatRoomId
p379
I0
sVHideInputBarFlag
p380
I0
sVEncryChatRoomId
p381
g45
sVAttrStatus
p382
I98343
sVSnsFlag
p383
I49
sVMemberCount
p384
I0
sVOwnerUin
p385
I0
sVAlias
p386
g45
sVSignature
p387
V\u9002\u5408\u81ea\u5df1\u624d\u662f\u66f4\u597d\u7684
p388
sVContactFlag
p389
I3
sVNickName
p390
V\u963f\u6977
p391
sVRemarkPYQuanPin
p392
g45
sVHeadImgUrl
p393
V/cgi-bin/mmwebwx-bin/webwxgeticon?seq=660210753&username=@70df3c37f10ce978afe97473a775b441&skey=@crypt_43ab139a_5213e1e2477146c575d9cc45804e06ae
p394
sVUin
p395
I0
sVStarFriend
p396
I0
sVStatues
p397
I0
sa(dp398
VUserName
p399
V@d7706c9a54fac931f0c1e992ada9f3331dc6e4ac0655a59219ccf994f4cf1f98
p400
sVCity
p401
V\u6c5f\u95e8
p402
sVDisplayName
p403
g45
sVUniFriend
p404
I0
sVMemberList
p405
(lp406
sVPYQuanPin
p407
Vyicongzhuangshizhaipeidaisheng
p408
sVRemarkPYInitial
p409
g45
sVSex
p410
I1
sVAppAccountFlag
p411
I0
sVVerifyFlag
p412
I0
sVProvince
p413
V\u5e7f\u4e1c
p414
sVKeyWord
p415
g45
sVRemarkName
p416
g45
sVPYInitial
p417
VYCZSZPDS
p418
sVIsOwner
p419
I0
sVChatRoomId
p420
I0
sVHideInputBarFlag
p421
I0
sVEncryChatRoomId
p422
g45
sVAttrStatus
p423
I4135
sVSnsFlag
p424
I17
sVMemberCount
p425
I0
sVOwnerUin
p426
I0
sVAlias
p427
g45
sVSignature
p428
V\u62db\u8058\uff1a\u6574\u4f53\u5bb6\u5177CAD\u7ed8\u56fe\u5458\uff0c\u524d\u53f0\u9500\u552e\u000a\u8054\u7cfb\uff1a13005820870  \u6234\u751f
p429
sVContactFlag
p430
I3
sVNickName
p431
V\u6613\u806a\u88c5\u9970\u5b85\u914d\uff0d\u6234\u751f
p432
sVRemarkPYQuanPin
p433
g45
sVHeadImgUrl
p434
V/cgi-bin/mmwebwx-bin/webwxgeticon?seq=663185501&username=@d7706c9a54fac931f0c1e992ada9f3331dc6e4ac0655a59219ccf994f4cf1f98&skey=@crypt_43ab139a_5213e1e2477146c575d9cc45804e06ae
p435
sVUin
p436
I0
sVStarFriend
p437
I0
sVStatues
p438
I0
sa(dp439
VUserName
p440
V@21c86bec9bf926a30952373b4f062da045d162ded1a15bc1d464155e86a8f1e6
p441
sVCity
p442
V\u6c5f\u95e8
p443
sVDisplayName
p444
g45
sVUniFriend
p445
I0
sVMemberList
p446
(lp447
sVPYQuanPin
p448
Vyao
p449
sVRemarkPYInitial
p450
g45
sVSex
p451
I1
sVAppAccountFlag
p452
I0
sVVerifyFlag
p453
I0
sVProvince
p454
V\u5e7f\u4e1c
p455
sVKeyWord
p456
g45
sVRemarkName
p457
g45
sVPYInitial
p458
VY
p459
sVIsOwner
p460
I0
sVChatRoomId
p461
I0
sVHideInputBarFlag
p462
I0
sVEncryChatRoomId
p463
g45
sVAttrStatus
p464
I135173
sVSnsFlag
p465
I17
sVMemberCount
p466
I0
sVOwnerUin
p467
I0
sVAlias
p468
g45
sVSignature
p469
V\u770b\u4e0d\u5230\u5e0c\u671b\u6bd4\u8d2b\u7a77\u66f4\u53ef\u6015
p470
sVContactFlag
p471
I3
sVNickName
p472
V\u8000
p473
sVRemarkPYQuanPin
p474
g45
sVHeadImgUrl
p475
V/cgi-bin/mmwebwx-bin/webwxgeticon?seq=660211142&username=@21c86bec9bf926a30952373b4f062da045d162ded1a15bc1d464155e86a8f1e6&skey=@crypt_43ab139a_5213e1e2477146c575d9cc45804e06ae
p476
sVUin
p477
I0
sVStarFriend
p478
I0
sVStatues
p479
I0
sa(dp480
VUserName
p481
V@d815da45efdcb99028567032d681e97b3423de6edf4c8b437f584b2b3c78cf5a
p482
sVCity
p483
g45
sVDisplayName
p484
g45
sVUniFriend
p485
I0
sVMemberList
p486
(lp487
sVPYQuanPin
p488
Vxindongliyifei
p489
sVRemarkPYInitial
p490
g45
sVSex
p491
I1
sVAppAccountFlag
p492
I0
sVVerifyFlag
p493
I0
sVProvince
p494
g45
sVKeyWord
p495
g45
sVRemarkName
p496
g45
sVPYInitial
p497
VXDLYF
p498
sVIsOwner
p499
I0
sVChatRoomId
p500
I0
sVHideInputBarFlag
p501
I0
sVEncryChatRoomId
p502
g45
sVAttrStatus
p503
I234275
sVSnsFlag
p504
I129
sVMemberCount
p505
I0
sVOwnerUin
p506
I0
sVAlias
p507
g45
sVSignature
p508
V\u7535\u5546\u65e0\u5168\u624d\uff0c\u505a\u7535\u5546\uff0c\u8d9f\u6c34\u8fc7\u6cb3\uff0c\u4e0d\u5982\u62b1\u56e2\u53d6\u6696\u3002
p509
sVContactFlag
p510
I3
sVNickName
p511
V\u65b0\u52a8\u529b\u9038\u98de
p512
sVRemarkPYQuanPin
p513
g45
sVHeadImgUrl
p514
V/cgi-bin/mmwebwx-bin/webwxgeticon?seq=646510448&username=@d815da45efdcb99028567032d681e97b3423de6edf4c8b437f584b2b3c78cf5a&skey=@crypt_43ab139a_5213e1e2477146c575d9cc45804e06ae
p515
sVUin
p516
I0
sVStarFriend
p517
I0
sVStatues
p518
I0
sa(dp519
VUserName
p520
V@28f30a0a5cec483c12968fa93374167a
p521
sVCity
p522
V\u6e56\u5dde
p523
sVDisplayName
p524
g45
sVUniFriend
p525
I0
sVMemberList
p526
(lp527
sVPYQuanPin
p528
Vshijingxiaoming
p529
sVRemarkPYInitial
p530
g45
sVSex
p531
I1
sVAppAccountFlag
p532
I0
sVVerifyFlag
p533
I0
sVProvince
p534
V\u6d59\u6c5f
p535
sVKeyWord
p536
Vqiq
p537
sVRemarkName
p538
g45
sVPYInitial
p539
VSJXM
p540
sVIsOwner
p541
I0
sVChatRoomId
p542
I0
sVHideInputBarFlag
p543
I0
sVEncryChatRoomId
p544
g45
sVAttrStatus
p545
I50565607
sVSnsFlag
p546
I17
sVMemberCount
p547
I0
sVOwnerUin
p548
I0
sVAlias
p549
g45
sVSignature
p550
V\u5bb6\u6709\u5343\u91d1\uff0c\u884c\u6b62\u7531\u5fc3\uff01
p551
sVContactFlag
p552
I3
sVNickName
p553
V\u5e02\u4e95\u5c0f\u660e
p554
sVRemarkPYQuanPin
p555
g45
sVHeadImgUrl
p556
V/cgi-bin/mmwebwx-bin/webwxgeticon?seq=646510606&username=@28f30a0a5cec483c12968fa93374167a&skey=@crypt_43ab139a_5213e1e2477146c575d9cc45804e06ae
p557
sVUin
p558
I0
sVStarFriend
p559
I0
sVStatues
p560
I0
sa(dp561
VUserName
p562
V@c5e367821d5681d344bebbe32f15475e5f6a9987772760921cc9306cf5f7862e
p563
sVCity
p564
V\u6c5f\u95e8
p565
sVDisplayName
p566
g45
sVUniFriend
p567
I0
sVMemberList
p568
(lp569
sVPYQuanPin
p570
Vjinpinxiangyebaolilongpinpai13018601383
p571
sVRemarkPYInitial
p572
g45
sVSex
p573
I1
sVAppAccountFlag
p574
I0
sVVerifyFlag
p575
I0
sVProvince
p576
V\u5e7f\u4e1c
p577
sVKeyWord
p578
g45
sVRemarkName
p579
g45
sVPYInitial
p580
VJPXYBLLPP13018601383
p581
sVIsOwner
p582
I0
sVChatRoomId
p583
I0
sVHideInputBarFlag
p584
I0
sVEncryChatRoomId
p585
g45
sVAttrStatus
p586
I33657125
sVSnsFlag
p587
I17
sVMemberCount
p588
I0
sVOwnerUin
p589
I0
sVAlias
p590
g45
sVSignature
p591
V\u5408\u4f5c\u5171\u8803\uff0c\u624d\u662f\u786c\u9053\u7406\u3002\u7535\u8bdd13018601383\uff0c\u6881\u751f
p592
sVContactFlag
p593
I3
sVNickName
p594
V\u9526\u8058\u9999\u696d\uff0c\u5b9d\u5229\u9686\u54c1\u724c13018601383
p595
sVRemarkPYQuanPin
p596
g45
sVHeadImgUrl
p597
V/cgi-bin/mmwebwx-bin/webwxgeticon?seq=663183769&username=@c5e367821d5681d344bebbe32f15475e5f6a9987772760921cc9306cf5f7862e&skey=@crypt_43ab139a_5213e1e2477146c575d9cc45804e06ae
p598
sVUin
p599
I0
sVStarFriend
p600
I0
sVStatues
p601
I0
sa(dp602
VUserName
p603
V@4bf8ec1a87945228efd413b62c6128f9ffebe4bf235195367d72f070680826e9
p604
sVCity
p605
V\u6c5f\u95e8
p606
sVDisplayName
p607
g45
sVUniFriend
p608
I0
sVMemberList
p609
(lp610
sVPYQuanPin
p611
Vjieniruyan
p612
sVRemarkPYInitial
p613
g45
sVSex
p614
I2
sVAppAccountFlag
p615
I0
sVVerifyFlag
p616
I0
sVProvince
p617
V\u5e7f\u4e1c
p618
sVKeyWord
p619
g45
sVRemarkName
p620
g45
sVPYInitial
p621
VJNRY
p622
sVIsOwner
p623
I0
sVChatRoomId
p624
I0
sVHideInputBarFlag
p625
I0
sVEncryChatRoomId
p626
g45
sVAttrStatus
p627
I102563
sVSnsFlag
p628
I17
sVMemberCount
p629
I0
sVOwnerUin
p630
I0
sVAlias
p631
g45
sVSignature
p632
V\u5929\u4f7f\u843d\u6cea\uff0c\u5760\u843d\u51e1\u95f4\uff01
p633
sVContactFlag
p634
I3
sVNickName
p635
V\u6212\u4f60\u5982\u70df
p636
sVRemarkPYQuanPin
p637
g45
sVHeadImgUrl
p638
V/cgi-bin/mmwebwx-bin/webwxgeticon?seq=663184602&username=@4bf8ec1a87945228efd413b62c6128f9ffebe4bf235195367d72f070680826e9&skey=@crypt_43ab139a_5213e1e2477146c575d9cc45804e06ae
p639
sVUin
p640
I0
sVStarFriend
p641
I0
sVStatues
p642
I0
sa(dp643
VUserName
p644
V@d4e5ed448911fc2a7772b7fe18638dbfc5f53e4da5dc5d221d00c5b54d224c79
p645
sVCity
p646
V\u6c5f\u95e8
p647
sVDisplayName
p648
g45
sVUniFriend
p649
I0
sVMemberList
p650
(lp651
sVPYQuanPin
p652
Vhuangshu
p653
sVRemarkPYInitial
p654
g45
sVSex
p655
I1
sVAppAccountFlag
p656
I0
sVVerifyFlag
p657
I0
sVProvince
p658
V\u5e7f\u4e1c
p659
sVKeyWord
p660
g45
sVRemarkName
p661
g45
sVPYInitial
p662
VHS
p663
sVIsOwner
p664
I0
sVChatRoomId
p665
I0
sVHideInputBarFlag
p666
I0
sVEncryChatRoomId
p667
g45
sVAttrStatus
p668
I102501
sVSnsFlag
p669
I1
sVMemberCount
p670
I0
sVOwnerUin
p671
I0
sVAlias
p672
g45
sVSignature
p673
V15813774158
p674
sVContactFlag
p675
I3
sVNickName
p676
V\u300a\u6643\u53d4~\u300b
p677
sVRemarkPYQuanPin
p678
g45
sVHeadImgUrl
p679
V/cgi-bin/mmwebwx-bin/webwxgeticon?seq=663189096&username=@d4e5ed448911fc2a7772b7fe18638dbfc5f53e4da5dc5d221d00c5b54d224c79&skey=@crypt_43ab139a_5213e1e2477146c575d9cc45804e06ae
p680
sVUin
p681
I0
sVStarFriend
p682
I0
sVStatues
p683
I0
sa(dp684
VUserName
p685
V@20e4c1711d59f23b49dab60954ef050937d48e93c8af5331499eef23cc377a85
p686
sVCity
p687
V\u798f\u5dde
p688
sVDisplayName
p689
g45
sVUniFriend
p690
I0
sVMemberList
p691
(lp692
sVPYQuanPin
p693
VAd007feifei
p694
sVRemarkPYInitial
p695
g45
sVSex
p696
I2
sVAppAccountFlag
p697
I0
sVVerifyFlag
p698
I0
sVProvince
p699
V\u798f\u5efa
p700
sVKeyWord
p701
g45
sVRemarkName
p702
g45
sVPYInitial
p703
VAD007FF
p704
sVIsOwner
p705
I0
sVChatRoomId
p706
I0
sVHideInputBarFlag
p707
I0
sVEncryChatRoomId
p708
g45
sVAttrStatus
p709
I16880167
sVSnsFlag
p710
I1
sVMemberCount
p711
I0
sVOwnerUin
p712
I0
sVAlias
p713
g45
sVSignature
p714
V\u5f00\u5fc3\u4fbf\u7b11\uff0c\u4f24\u5fc3\u4fbf\u54ed\uff0c\u8fd9\u662f\u4eba\u4e4b\u672c\u6027\u3002\u53ef\u6211\u4eec\u90fd\u5728\u5014\u5f3a\u7684\u98a0\u8986\u672c\u6027\u3002
p715
sVContactFlag
p716
I3
sVNickName
p717
VAd007\u83f2\u83f2
p718
sVRemarkPYQuanPin
p719
g45
sVHeadImgUrl
p720
V/cgi-bin/mmwebwx-bin/webwxgeticon?seq=660211792&username=@20e4c1711d59f23b49dab60954ef050937d48e93c8af5331499eef23cc377a85&skey=@crypt_43ab139a_5213e1e2477146c575d9cc45804e06ae
p721
sVUin
p722
I0
sVStarFriend
p723
I0
sVStatues
p724
I0
sa(dp725
VUserName
p726
V@41eb7ad7f22e41f821efac9d880b92bb542c2489a918c5dc6decca398729a9eb
p727
sVCity
p728
V\u6c5f\u95e8
p729
sVDisplayName
p730
g45
sVUniFriend
p731
I0
sVMemberList
p732
(lp733
sVPYQuanPin
p734
Vmeimei
p735
sVRemarkPYInitial
p736
g45
sVSex
p737
I2
sVAppAccountFlag
p738
I0
sVVerifyFlag
p739
I0
sVProvince
p740
V\u5e7f\u4e1c
p741
sVKeyWord
p742
g45
sVRemarkName
p743
g45
sVPYInitial
p744
VMM
p745
sVIsOwner
p746
I0
sVChatRoomId
p747
I0
sVHideInputBarFlag
p748
I0
sVEncryChatRoomId
p749
g45
sVAttrStatus
p750
I2147596389
sVSnsFlag
p751
I1
sVMemberCount
p752
I0
sVOwnerUin
p753
I0
sVAlias
p754
g45
sVSignature
p755
g45
sVContactFlag
p756
I3
sVNickName
p757
V\u5a9a\u5a9a
p758
sVRemarkPYQuanPin
p759
g45
sVHeadImgUrl
p760
V/cgi-bin/mmwebwx-bin/webwxgeticon?seq=663189575&username=@41eb7ad7f22e41f821efac9d880b92bb542c2489a918c5dc6decca398729a9eb&skey=@crypt_43ab139a_5213e1e2477146c575d9cc45804e06ae
p761
sVUin
p762
I0
sVStarFriend
p763
I0
sVStatues
p764
I0
sa(dp765
VUserName
p766
V@1374d81cdceae6ae48f44579af5e8876a2be9d076322537b6870b6231946073b
p767
sVCity
p768
V\u6df1\u5733
p769
sVDisplayName
p770
g45
sVUniFriend
p771
I0
sVMemberList
p772
(lp773
sVPYQuanPin
p774
Vmimi
p775
sVRemarkPYInitial
p776
g45
sVSex
p777
I2
sVAppAccountFlag
p778
I0
sVVerifyFlag
p779
I0
sVProvince
p780
V\u5e7f\u4e1c
p781
sVKeyWord
p782
g45
sVRemarkName
p783
g45
sVPYInitial
p784
VMM
p785
sVIsOwner
p786
I0
sVChatRoomId
p787
I0
sVHideInputBarFlag
p788
I0
sVEncryChatRoomId
p789
g45
sVAttrStatus
p790
I17011041
sVSnsFlag
p791
I1
sVMemberCount
p792
I0
sVOwnerUin
p793
I0
sVAlias
p794
g45
sVSignature
p795
g45
sVContactFlag
p796
I3
sVNickName
p797
V\u89c5\u89c5
p798
sVRemarkPYQuanPin
p799
g45
sVHeadImgUrl
p800
V/cgi-bin/mmwebwx-bin/webwxgeticon?seq=660210678&username=@1374d81cdceae6ae48f44579af5e8876a2be9d076322537b6870b6231946073b&skey=@crypt_43ab139a_5213e1e2477146c575d9cc45804e06ae
p801
sVUin
p802
I0
sVStarFriend
p803
I0
sVStatues
p804
I0
sa(dp805
VUserName
p806
V@e93d97ad706ce4dbe5558e3a4d1640faa198c79258bac4781964058ad6644b43
p807
sVCity
p808
VPort Lincoln
p809
sVDisplayName
p810
g45
sVUniFriend
p811
I0
sVMemberList
p812
(lp813
sVPYQuanPin
p814
Vaijiuyishenggensui
p815
sVRemarkPYInitial
p816
g45
sVSex
p817
I1
sVAppAccountFlag
p818
I0
sVVerifyFlag
p819
I0
sVProvince
p820
VSouth Australia
p821
sVKeyWord
p822
g45
sVRemarkName
p823
g45
sVPYInitial
p824
VAJYSGS
p825
sVIsOwner
p826
I0
sVChatRoomId
p827
I0
sVHideInputBarFlag
p828
I0
sVEncryChatRoomId
p829
g45
sVAttrStatus
p830
I102497
sVSnsFlag
p831
I1
sVMemberCount
p832
I0
sVOwnerUin
p833
I0
sVAlias
p834
g45
sVSignature
p835
V\u7d2b\u6c14\u4e1c\u6765
p836
sVContactFlag
p837
I3
sVNickName
p838
V\u7231-\u5c31\u4e00\u751f\u8ddf\u968f
p839
sVRemarkPYQuanPin
p840
g45
sVHeadImgUrl
p841
V/cgi-bin/mmwebwx-bin/webwxgeticon?seq=663190486&username=@e93d97ad706ce4dbe5558e3a4d1640faa198c79258bac4781964058ad6644b43&skey=@crypt_43ab139a_5213e1e2477146c575d9cc45804e06ae
p842
sVUin
p843
I0
sVStarFriend
p844
I0
sVStatues
p845
I0
sa(dp846
VUserName
p847
V@b21db433f5ac4de8f1cb83bdcdf41ad1cb46eb37dde1038faed2ffbc20fe45bc
p848
sVCity
p849
V\u6c5f\u95e8
p850
sVDisplayName
p851
g45
sVUniFriend
p852
I0
sVMemberList
p853
(lp854
sVPYQuanPin
p855
Vpiaopiao
p856
sVRemarkPYInitial
p857
g45
sVSex
p858
I2
sVAppAccountFlag
p859
I0
sVVerifyFlag
p860
I0
sVProvince
p861
V\u5e7f\u4e1c
p862
sVKeyWord
p863
g45
sVRemarkName
p864
g45
sVPYInitial
p865
VPP
p866
sVIsOwner
p867
I0
sVChatRoomId
p868
I0
sVHideInputBarFlag
p869
I0
sVEncryChatRoomId
p870
g45
sVAttrStatus
p871
I104485
sVSnsFlag
p872
I1
sVMemberCount
p873
I0
sVOwnerUin
p874
I0
sVAlias
p875
g45
sVSignature
p876
V\u6709\u4e8b\u8bf7\u753513824062277
p877
sVContactFlag
p878
I66307
sVNickName
p879
V\u98d8\u98d8
p880
sVRemarkPYQuanPin
p881
g45
sVHeadImgUrl
p882
V/cgi-bin/mmwebwx-bin/webwxgeticon?seq=663180463&username=@b21db433f5ac4de8f1cb83bdcdf41ad1cb46eb37dde1038faed2ffbc20fe45bc&skey=@crypt_43ab139a_5213e1e2477146c575d9cc45804e06ae
p883
sVUin
p884
I0
sVStarFriend
p885
I0
sVStatues
p886
I0
sa(dp887
VUserName
p888
V@0aaaed9759c6e2e6bc78e25736c60890de402696b57ff66be9f4dacb641ff6a0
p889
sVCity
p890
V\u676d\u5dde
p891
sVDisplayName
p892
g45
sVUniFriend
p893
I0
sVMemberList
p894
(lp895
sVPYQuanPin
p896
Valangdesaiwei7haomanjiaxinyang72018
p897
sVRemarkPYInitial
p898
g45
sVSex
p899
I1
sVAppAccountFlag
p900
I0
sVVerifyFlag
p901
I0
sVProvince
p902
V\u6d59\u6c5f
p903
sVKeyWord
p904
g45
sVRemarkName
p905
g45
sVPYInitial
p906
VALDSW7HMJXINYANG72018
p907
sVIsOwner
p908
I0
sVChatRoomId
p909
I0
sVHideInputBarFlag
p910
I0
sVEncryChatRoomId
p911
g45
sVAttrStatus
p912
I233661
sVSnsFlag
p913
I17
sVMemberCount
p914
I0
sVOwnerUin
p915
I0
sVAlias
p916
g45
sVSignature
p917
V\u5f53\u4f60\u9047\u5230\u89e3\u51b3\u4e0d\u4e86\u7684\u95ee\u9898\uff0c\u8bb0\u5f97\u6765\u627e\u6211\uff01
p918
sVContactFlag
p919
I3
sVNickName
p920
V\u963f\u72fc\u7684\u601d\u7ef4\uff087\u53f7\u6ee1\u52a0xinyang72018
p921
sVRemarkPYQuanPin
p922
g45
sVHeadImgUrl
p923
V/cgi-bin/mmwebwx-bin/webwxgeticon?seq=646510473&username=@0aaaed9759c6e2e6bc78e25736c60890de402696b57ff66be9f4dacb641ff6a0&skey=@crypt_43ab139a_5213e1e2477146c575d9cc45804e06ae
p924
sVUin
p925
I0
sVStarFriend
p926
I0
sVStatues
p927
I0
sa(dp928
VUserName
p929
V@4e7d0470ca06ec6953a62ba08e86a615f2074791fa41b1e14f86f508aee20fb5
p930
sVCity
p931
V\u6c5f\u95e8
p932
sVDisplayName
p933
g45
sVUniFriend
p934
I0
sVMemberList
p935
(lp936
sVPYQuanPin
p937
VA0001kuaidilizhengsen
p938
sVRemarkPYInitial
p939
VA0001KDZJLIZSGMYD
p940
sVSex
p941
I1
sVAppAccountFlag
p942
I0
sVVerifyFlag
p943
I0
sVProvince
p944
V\u5e7f\u4e1c
p945
sVKeyWord
p946
g45
sVRemarkName
p947
VA0001_\u5feb\u9012\u4e4b\u5bb6Li\u653f\u68ee\uff0d\u56fd\u7801\u97f5\u8fbe
p948
sVPYInitial
p949
VA0001KDLZS
p950
sVIsOwner
p951
I0
sVChatRoomId
p952
I0
sVHideInputBarFlag
p953
I0
sVEncryChatRoomId
p954
g45
sVAttrStatus
p955
I33620999
sVSnsFlag
p956
I49
sVMemberCount
p957
I0
sVOwnerUin
p958
I0
sVAlias
p959
g45
sVSignature
p960
V\u4e3a\u81ea\u5df1\u60f3\u8981\u7684\u751f\u6d3b\u72b6\u6001\u800c\u52aa\u529b\u8d5a\u94b1\uff0c\u662f\u4eba\u7684\u6700\u57fa\u672c\u9700\u6c42
p961
sVContactFlag
p962
I3
sVNickName
p963
VA0001_\u5feb\u9012 \u674e\u653f\u68ee
p964
sVRemarkPYQuanPin
p965
VA0001kuaidizhijiaLizhengsenguomayunda
p966
sVHeadImgUrl
p967
V/cgi-bin/mmwebwx-bin/webwxgeticon?seq=660210112&username=@4e7d0470ca06ec6953a62ba08e86a615f2074791fa41b1e14f86f508aee20fb5&skey=@crypt_43ab139a_5213e1e2477146c575d9cc45804e06ae
p968
sVUin
p969
I0
sVStarFriend
p970
I0
sVStatues
p971
I0
sa(dp972
VUserName
p973
V@ea84b7d6e979e0cbac996d99b0faa98b92e446f8c6a87f98f6275d5e402a8078
p974
sVCity
p975
V\u6c5f\u95e8
p976
sVDisplayName
p977
g45
sVUniFriend
p978
I0
sVMemberList
p979
(lp980
sVPYQuanPin
p981
Vqingxiangyirenjinlilong
p982
sVRemarkPYInitial
p983
g45
sVSex
p984
I2
sVAppAccountFlag
p985
I0
sVVerifyFlag
p986
I0
sVProvince
p987
V\u5e7f\u4e1c
p988
sVKeyWord
p989
g45
sVRemarkName
p990
g45
sVPYInitial
p991
VQXYRJLL
p992
sVIsOwner
p993
I0
sVChatRoomId
p994
I0
sVHideInputBarFlag
p995
I0
sVEncryChatRoomId
p996
g45
sVAttrStatus
p997
I102469
sVSnsFlag
p998
I1
sVMemberCount
p999
I0
sVOwnerUin
p1000
I0
sVAlias
p1001
g45
sVSignature
p1002
g45
sVContactFlag
p1003
I3
sVNickName
p1004
V\u6e05\u9999\u6021\u4eba\uff08\u91d1\u5229\u9f99\uff09
p1005
sVRemarkPYQuanPin
p1006
g45
sVHeadImgUrl
p1007
V/cgi-bin/mmwebwx-bin/webwxgeticon?seq=646510527&username=@ea84b7d6e979e0cbac996d99b0faa98b92e446f8c6a87f98f6275d5e402a8078&skey=@crypt_43ab139a_5213e1e2477146c575d9cc45804e06ae
p1008
sVUin
p1009
I0
sVStarFriend
p1010
I0
sVStatues
p1011
I0
sa(dp1012
VUserName
p1013
V@739fe37808f122d7a7b3eb38c92bb03698c3c2c628be1ff7e92ec82730a84a63
p1014
sVCity
p1015
V\u6b66\u6c49
p1016
sVDisplayName
p1017
g45
sVUniFriend
p1018
I0
sVMemberList
p1019
(lp1020
sVPYQuanPin
p1021
Vazhengbangchuangshirenazheng
p1022
sVRemarkPYInitial
p1023
g45
sVSex
p1024
I1
sVAppAccountFlag
p1025
I0
sVVerifyFlag
p1026
I0
sVProvince
p1027
V\u6e56\u5317
p1028
sVKeyWord
p1029
g45
sVRemarkName
p1030
g45
sVPYInitial
p1031
VAZBCSRAZ
p1032
sVIsOwner
p1033
I0
sVChatRoomId
p1034
I0
sVHideInputBarFlag
p1035
I0
sVEncryChatRoomId
p1036
g45
sVAttrStatus
p1037
I102499
sVSnsFlag
p1038
I1
sVMemberCount
p1039
I0
sVOwnerUin
p1040
I0
sVAlias
p1041
g45
sVSignature
p1042
V\u77e5\u8bc6\u7f51\u7ea2\u7b2c\u4e00\u4eba\uff0c\u963f\u6b63\u5e2e\u521b\u59cb\u4eba\uff0c\u6dd8\u5b9d\u5e97\u957f\u4e00\u5929\u4f5c\u8005\uff0c\u5e74\u9500\u552e\u8fc7\u4ebf\u3002
p1043
sVContactFlag
p1044
I3
sVNickName
p1045
V\u963f\u6b63\u5e2e\u521b\u59cb\u4eba\u963f\u6b63
p1046
sVRemarkPYQuanPin
p1047
g45
sVHeadImgUrl
p1048
V/cgi-bin/mmwebwx-bin/webwxgeticon?seq=663186168&username=@739fe37808f122d7a7b3eb38c92bb03698c3c2c628be1ff7e92ec82730a84a63&skey=@crypt_43ab139a_5213e1e2477146c575d9cc45804e06ae
p1049
sVUin
p1050
I0
sVStarFriend
p1051
I0
sVStatues
p1052
I0
sa(dp1053
VUserName
p1054
V@edd9a6ec21988389a4af5bbc8e266624
p1055
sVCity
p1056
V\u6c5f\u95e8
p1057
sVDisplayName
p1058
g45
sVUniFriend
p1059
I0
sVMemberList
p1060
(lp1061
sVPYQuanPin
p1062
Vjinbimenyeqiuge13828073698
p1063
sVRemarkPYInitial
p1064
g45
sVSex
p1065
I1
sVAppAccountFlag
p1066
I0
sVVerifyFlag
p1067
I0
sVProvince
p1068
V\u5e7f\u4e1c
p1069
sVKeyWord
p1070
Vliu
p1071
sVRemarkName
p1072
g45
sVPYInitial
p1073
VJBMYQG13828073698
p1074
sVIsOwner
p1075
I0
sVChatRoomId
p1076
I0
sVHideInputBarFlag
p1077
I0
sVEncryChatRoomId
p1078
g45
sVAttrStatus
p1079
I98469
sVSnsFlag
p1080
I177
sVMemberCount
p1081
I0
sVOwnerUin
p1082
I0
sVAlias
p1083
g45
sVSignature
p1084
V13828073698
p1085
sVContactFlag
p1086
I3
sVNickName
p1087
V\u91d1\u78a7\u95e8\u4e1a:\u79cb\u54e513828073698
p1088
sVRemarkPYQuanPin
p1089
g45
sVHeadImgUrl
p1090
V/cgi-bin/mmwebwx-bin/webwxgeticon?seq=663180998&username=@edd9a6ec21988389a4af5bbc8e266624&skey=@crypt_43ab139a_5213e1e2477146c575d9cc45804e06ae
p1091
sVUin
p1092
I0
sVStarFriend
p1093
I0
sVStatues
p1094
I0
sa(dp1095
VUserName
p1096
V@1f47973e4c155d60f1c1fcebb865472a4923b16488b63aef23c4de495ffbdc7c
p1097
sVCity
p1098
V\u6c5f\u95e8
p1099
sVDisplayName
p1100
g45
sVUniFriend
p1101
I0
sVMemberList
p1102
(lp1103
sVPYQuanPin
p1104
Vweixinlanyueliang
p1105
sVRemarkPYInitial
p1106
g45
sVSex
p1107
I2
sVAppAccountFlag
p1108
I0
sVVerifyFlag
p1109
I0
sVProvince
p1110
V\u5e7f\u4e1c
p1111
sVKeyWord
p1112
g45
sVRemarkName
p1113
g45
sVPYInitial
p1114
VWXLYL
p1115
sVIsOwner
p1116
I0
sVChatRoomId
p1117
I0
sVHideInputBarFlag
p1118
I0
sVEncryChatRoomId
p1119
g45
sVAttrStatus
p1120
I4133
sVSnsFlag
p1121
I1
sVMemberCount
p1122
I0
sVOwnerUin
p1123
I0
sVAlias
p1124
g45
sVSignature
p1125
g45
sVContactFlag
p1126
I3
sVNickName
p1127
V\u5fae\u4fe1\u7bee\u6708\u4eae
p1128
sVRemarkPYQuanPin
p1129
g45
sVHeadImgUrl
p1130
V/cgi-bin/mmwebwx-bin/webwxgeticon?seq=660212514&username=@1f47973e4c155d60f1c1fcebb865472a4923b16488b63aef23c4de495ffbdc7c&skey=@crypt_43ab139a_5213e1e2477146c575d9cc45804e06ae
p1131
sVUin
p1132
I0
sVStarFriend
p1133
I0
sVStatues
p1134
I0
sa(dp1135
VUserName
p1136
V@76ac46af9c2541af0a45157f70fc01bc
p1137
sVCity
p1138
V\u6c5f\u95e8
p1139
sVDisplayName
p1140
g45
sVUniFriend
p1141
I0
sVMemberList
p1142
(lp1143
sVPYQuanPin
p1144
VAyuantongsudigaoshafenbu
p1145
sVRemarkPYInitial
p1146
VYQEJYTSD
p1147
sVSex
p1148
I1
sVAppAccountFlag
p1149
I0
sVVerifyFlag
p1150
I0
sVProvince
p1151
V\u5e7f\u4e1c
p1152
sVKeyWord
p1153
Vyoy
p1154
sVRemarkName
p1155
V\u4e00\u6e05\u4e8c\u9759\u5706\u901a\u901f\u9012
p1156
sVPYInitial
p1157
VAYTSDGSFB
p1158
sVIsOwner
p1159
I0
sVChatRoomId
p1160
I0
sVHideInputBarFlag
p1161
I0
sVEncryChatRoomId
p1162
g45
sVAttrStatus
p1163
I176295
sVSnsFlag
p1164
I17
sVMemberCount
p1165
I0
sVOwnerUin
p1166
I0
sVAlias
p1167
g45
sVSignature
p1168
V\u5feb\u9012\u5c0f\u54e5\u3002\u5fae\u4fe1\u53ef\u8f6c\u53d1\u7ea2\u5305\uff08\u5bc4\u4ef6\u8d39\uff0c\u5230\u4ed8\u8d39\uff09\u7535\u8bdd13725922128
p1169
sVContactFlag
p1170
I515
sVNickName
p1171
VA\u3010\u5706\u901a\u901f\u9012\u3011\u9ad8\u6c99\u5206\u90e8
p1172
sVRemarkPYQuanPin
p1173
Vyiqingerjingyuantongsudi
p1174
sVHeadImgUrl
p1175
V/cgi-bin/mmwebwx-bin/webwxgeticon?seq=660211446&username=@76ac46af9c2541af0a45157f70fc01bc&skey=@crypt_43ab139a_5213e1e2477146c575d9cc45804e06ae
p1176
sVUin
p1177
I0
sVStarFriend
p1178
I0
sVStatues
p1179
I0
sa(dp1180
VUserName
p1181
V@84ffa89611b8c9f93af7b2cf1bdcb9253ead3f72c383f61b27f5722463c79db2
p1182
sVCity
p1183
V\u6c5f\u95e8
p1184
sVDisplayName
p1185
g45
sVUniFriend
p1186
I0
sVMemberList
p1187
(lp1188
sVPYQuanPin
p1189
Vlingling
p1190
sVRemarkPYInitial
p1191
g45
sVSex
p1192
I2
sVAppAccountFlag
p1193
I0
sVVerifyFlag
p1194
I0
sVProvince
p1195
V\u5e7f\u4e1c
p1196
sVKeyWord
p1197
g45
sVRemarkName
p1198
g45
sVPYInitial
p1199
VLL
p1200
sVIsOwner
p1201
I0
sVChatRoomId
p1202
I0
sVHideInputBarFlag
p1203
I0
sVEncryChatRoomId
p1204
g45
sVAttrStatus
p1205
I102501
sVSnsFlag
p1206
I17
sVMemberCount
p1207
I0
sVOwnerUin
p1208
I0
sVAlias
p1209
g45
sVSignature
p1210
V\u4eba\u6c38\u8fdc\u8dd1\u4e0d\u8fc7\u65f6\u95f4\uff0c\u4f46\u53ea\u8981\u628a\u63e1\u597d\u5f53\u4e0b\uff0c\u53ef\u4ee5\u6bd4\u539f\u6765\u8dd1\u5feb\u4e00\u6b65\u3002
p1211
sVContactFlag
p1212
I3
sVNickName
p1213
V\u73b2\u73b2
p1214
sVRemarkPYQuanPin
p1215
g45
sVHeadImgUrl
p1216
V/cgi-bin/mmwebwx-bin/webwxgeticon?seq=663191639&username=@84ffa89611b8c9f93af7b2cf1bdcb9253ead3f72c383f61b27f5722463c79db2&skey=@crypt_43ab139a_5213e1e2477146c575d9cc45804e06ae
p1217
sVUin
p1218
I0
sVStarFriend
p1219
I0
sVStatues
p1220
I0
sa(dp1221
VUserName
p1222
V@6e30b589b01a1703db1713c078c28ac1e00928425d48bfa23299cc2ac645c51b
p1223
sVCity
p1224
V\u6c5f\u95e8
p1225
sVDisplayName
p1226
g45
sVUniFriend
p1227
I0
sVMemberList
p1228
(lp1229
sVPYQuanPin
p1230
Vqianhairenshouxielili15088136363
p1231
sVRemarkPYInitial
p1232
g45
sVSex
p1233
I2
sVAppAccountFlag
p1234
I0
sVVerifyFlag
p1235
I0
sVProvince
p1236
V\u5e7f\u4e1c
p1237
sVKeyWord
p1238
g45
sVRemarkName
p1239
g45
sVPYInitial
p1240
VQHRSXLL15088136363
p1241
sVIsOwner
p1242
I0
sVChatRoomId
p1243
I0
sVHideInputBarFlag
p1244
I0
sVEncryChatRoomId
p1245
g45
sVAttrStatus
p1246
I127079
sVSnsFlag
p1247
I49
sVMemberCount
p1248
I0
sVOwnerUin
p1249
I0
sVAlias
p1250
g45
sVSignature
p1251
V\u771f\u8bda\u505a\u4eba\uff0c\u7528\u5fc3\u505a\u4e8b\u3002\u8d8a\u52aa\u529b\u8d8a\u5e78\u8fd0\uff01\u4e00\u5b9a\u8981\u505a\u4e00\u4e2a\u6709\u4ef7\u503c\u7684\u5973\u4eba\uff01
p1252
sVContactFlag
p1253
I515
sVNickName
p1254
V\u524d\u6d77\u4eba\u5bff\u8c22\u4e3d\u4e3d15088136363
p1255
sVRemarkPYQuanPin
p1256
g45
sVHeadImgUrl
p1257
V/cgi-bin/mmwebwx-bin/webwxgeticon?seq=663190296&username=@6e30b589b01a1703db1713c078c28ac1e00928425d48bfa23299cc2ac645c51b&skey=@crypt_43ab139a_5213e1e2477146c575d9cc45804e06ae
p1258
sVUin
p1259
I0
sVStarFriend
p1260
I0
sVStatues
p1261
I0
sa(dp1262
VUserName
p1263
V@5f1478f7a7cb289cf7e0361382d66931
p1264
sVCity
p1265
g45
sVDisplayName
p1266
g45
sVUniFriend
p1267
I0
sVMemberList
p1268
(lp1269
sVPYQuanPin
p1270
VSunsinezhongdilvtu
p1271
sVRemarkPYInitial
p1272
g45
sVSex
p1273
I1
sVAppAccountFlag
p1274
I0
sVVerifyFlag
p1275
I0
sVProvince
p1276
VParis
p1277
sVKeyWord
p1278
Vlov
p1279
sVRemarkName
p1280
g45
sVPYInitial
p1281
VSUNSINEZDLT
p1282
sVIsOwner
p1283
I0
sVChatRoomId
p1284
I0
sVHideInputBarFlag
p1285
I0
sVEncryChatRoomId
p1286
g45
sVAttrStatus
p1287
I33656869
sVSnsFlag
p1288
I17
sVMemberCount
p1289
I0
sVOwnerUin
p1290
I0
sVAlias
p1291
g45
sVSignature
p1292
V\u201c\u4e00\u623f\u4e24\u4eba\u4e09\u9910\u56db\u5b63\u201d\u8fd9\u662f\u6211\u4eec\u4f1a\u5b9e\u73b0\u7684\u68a6
p1293
sVContactFlag
p1294
I3
sVNickName
p1295
VSunsine\u4e2d\u6ef4\u65c5\u9014
p1296
sVRemarkPYQuanPin
p1297
g45
sVHeadImgUrl
p1298
V/cgi-bin/mmwebwx-bin/webwxgeticon?seq=660211340&username=@5f1478f7a7cb289cf7e0361382d66931&skey=@crypt_43ab139a_5213e1e2477146c575d9cc45804e06ae
p1299
sVUin
p1300
I0
sVStarFriend
p1301
I0
sVStatues
p1302
I0
sa(dp1303
VUserName
p1304
V@6964f2fddb3392cfd276e7b6f92c9441d8473383f1c07c95d5cf76e4a676d8e8
p1305
sVCity
p1306
V\u6c5f\u95e8
p1307
sVDisplayName
p1308
g45
sVUniFriend
p1309
I0
sVMemberList
p1310
(lp1311
sVPYQuanPin
p1312
V?xiaoyan?
p1313
sVRemarkPYInitial
p1314
g45
sVSex
p1315
I2
sVAppAccountFlag
p1316
I0
sVVerifyFlag
p1317
I0
sVProvince
p1318
V\u5e7f\u4e1c
p1319
sVKeyWord
p1320
g45
sVRemarkName
p1321
g45
sVPYInitial
p1322
V?XY?
p1323
sVIsOwner
p1324
I0
sVChatRoomId
p1325
I0
sVHideInputBarFlag
p1326
I0
sVEncryChatRoomId
p1327
g45
sVAttrStatus
p1328
I104549
sVSnsFlag
p1329
I49
sVMemberCount
p1330
I0
sVOwnerUin
p1331
I0
sVAlias
p1332
g45
sVSignature
p1333
g45
sVContactFlag
p1334
I3
sVNickName
p1335
V\U0001f352\u5c0f\u8273\U0001f352
p1336
sVRemarkPYQuanPin
p1337
g45
sVHeadImgUrl
p1338
V/cgi-bin/mmwebwx-bin/webwxgeticon?seq=663191986&username=@6964f2fddb3392cfd276e7b6f92c9441d8473383f1c07c95d5cf76e4a676d8e8&skey=@crypt_43ab139a_5213e1e2477146c575d9cc45804e06ae
p1339
sVUin
p1340
I0
sVStarFriend
p1341
I0
sVStatues
p1342
I0
sa(dp1343
VUserName
p1344
V@c0bcaf0c8b323b94b1f86b983ebec813
p1345
sVCity
p1346
V\u6b66\u6c49
p1347
sVDisplayName
p1348
g45
sVUniFriend
p1349
I0
sVMemberList
p1350
(lp1351
sVPYQuanPin
p1352
Vazhengdianshangzhishiwanghongdiyiren
p1353
sVRemarkPYInitial
p1354
g45
sVSex
p1355
I1
sVAppAccountFlag
p1356
I0
sVVerifyFlag
p1357
I0
sVProvince
p1358
V\u6e56\u5317
p1359
sVKeyWord
p1360
Vzx6
p1361
sVRemarkName
p1362
g45
sVPYInitial
p1363
VAZDSZSWHDYR
p1364
sVIsOwner
p1365
I0
sVChatRoomId
p1366
I0
sVHideInputBarFlag
p1367
I0
sVEncryChatRoomId
p1368
g45
sVAttrStatus
p1369
I103013
sVSnsFlag
p1370
I145
sVMemberCount
p1371
I0
sVOwnerUin
p1372
I0
sVAlias
p1373
g45
sVSignature
p1374
V\u201c\u6dd8\u5b9d\u5e97\u957f\u76841\u5929\u201d\u4f5c\u8005  \u963f\u6b63\u5e2e\u521b\u59cb\u4eba \u81ea\u5a92\u4f53\u5927\u5496 \u5206\u4eab\u5373\u4fee\u884c\u3002
p1375
sVContactFlag
p1376
I3
sVNickName
p1377
V\u963f\u6b63 | \u7535\u5546\u77e5\u8bc6\u7f51\u7ea2\u7b2c\u4e00\u4eba
p1378
sVRemarkPYQuanPin
p1379
g45
sVHeadImgUrl
p1380
V/cgi-bin/mmwebwx-bin/webwxgeticon?seq=663185885&username=@c0bcaf0c8b323b94b1f86b983ebec813&skey=@crypt_43ab139a_5213e1e2477146c575d9cc45804e06ae
p1381
sVUin
p1382
I0
sVStarFriend
p1383
I0
sVStatues
p1384
I0
sa(dp1385
VUserName
p1386
V@1d4b463735d806689dd77c37c9799c7dc2192136057d931dcfdaaf7ee1bf132d
p1387
sVCity
p1388
V\u6c5f\u95e8
p1389
sVDisplayName
p1390
g45
sVUniFriend
p1391
I0
sVMemberList
p1392
(lp1393
sVPYQuanPin
p1394
Vxibao
p1395
sVRemarkPYInitial
p1396
g45
sVSex
p1397
I1
sVAppAccountFlag
p1398
I0
sVVerifyFlag
p1399
I0
sVProvince
p1400
V\u5e7f\u4e1c
p1401
sVKeyWord
p1402
g45
sVRemarkName
p1403
g45
sVPYInitial
p1404
VXB
p1405
sVIsOwner
p1406
I0
sVChatRoomId
p1407
I0
sVHideInputBarFlag
p1408
I0
sVEncryChatRoomId
p1409
g45
sVAttrStatus
p1410
I66599
sVSnsFlag
p1411
I17
sVMemberCount
p1412
I0
sVOwnerUin
p1413
I0
sVAlias
p1414
g45
sVSignature
p1415
V\u6709\u9633\u5149\u7684\u5730\u65b9\u624d\u4f1a\u6709\u5f71\u5b50\uff01
p1416
sVContactFlag
p1417
I3
sVNickName
p1418
V\u559c\u5b9d
p1419
sVRemarkPYQuanPin
p1420
g45
sVHeadImgUrl
p1421
V/cgi-bin/mmwebwx-bin/webwxgeticon?seq=663192525&username=@1d4b463735d806689dd77c37c9799c7dc2192136057d931dcfdaaf7ee1bf132d&skey=@crypt_43ab139a_5213e1e2477146c575d9cc45804e06ae
p1422
sVUin
p1423
I0
sVStarFriend
p1424
I0
sVStatues
p1425
I0
sa(dp1426
VUserName
p1427
V@468d92265d1b39ad5340f2c17d471991d9afdf2a2c7cfefa6be99c026757535b
p1428
sVCity
p1429
V\u6c5f\u95e8
p1430
sVDisplayName
p1431
g45
sVUniFriend
p1432
I0
sVMemberList
p1433
(lp1434
sVPYQuanPin
p1435
Vhuowuyaoyang
p1436
sVRemarkPYInitial
p1437
g45
sVSex
p1438
I1
sVAppAccountFlag
p1439
I0
sVVerifyFlag
p1440
I0
sVProvince
p1441
V\u5e7f\u4e1c
p1442
sVKeyWord
p1443
g45
sVRemarkName
p1444
g45
sVPYInitial
p1445
VHWYY
p1446
sVIsOwner
p1447
I0
sVChatRoomId
p1448
I0
sVHideInputBarFlag
p1449
I0
sVEncryChatRoomId
p1450
g45
sVAttrStatus
p1451
I102439
sVSnsFlag
p1452
I16
sVMemberCount
p1453
I0
sVOwnerUin
p1454
I0
sVAlias
p1455
g45
sVSignature
p1456
V\u4e0d\u559c\u6b22\u5b64\u72ec\uff0c\u5374\u7231\u4e0a\u4e86\u5b64\u72ec
p1457
sVContactFlag
p1458
I3
sVNickName
p1459
V\u706b\u6b66\u8000\u626c
p1460
sVRemarkPYQuanPin
p1461
g45
sVHeadImgUrl
p1462
V/cgi-bin/mmwebwx-bin/webwxgeticon?seq=660211415&username=@468d92265d1b39ad5340f2c17d471991d9afdf2a2c7cfefa6be99c026757535b&skey=@crypt_43ab139a_5213e1e2477146c575d9cc45804e06ae
p1463
sVUin
p1464
I0
sVStarFriend
p1465
I0
sVStatues
p1466
I0
sa(dp1467
VUserName
p1468
V@7c0346354edfb6b6cb5cd3b27da5de39
p1469
sVCity
p1470
V\u6c5f\u95e8
p1471
sVDisplayName
p1472
g45
sVUniFriend
p1473
I0
sVMemberList
p1474
(lp1475
sVPYQuanPin
p1476
Vjacklee
p1477
sVRemarkPYInitial
p1478
g45
sVSex
p1479
I1
sVAppAccountFlag
p1480
I0
sVVerifyFlag
p1481
I0
sVProvince
p1482
V\u5e7f\u4e1c
p1483
sVKeyWord
p1484
Vjac
p1485
sVRemarkName
p1486
g45
sVPYInitial
p1487
VJACKLEE
p1488
sVIsOwner
p1489
I0
sVChatRoomId
p1490
I0
sVHideInputBarFlag
p1491
I0
sVEncryChatRoomId
p1492
g45
sVAttrStatus
p1493
I16912503
sVSnsFlag
p1494
I17
sVMemberCount
p1495
I0
sVOwnerUin
p1496
I0
sVAlias
p1497
g45
sVSignature
p1498
V\u5929\u9053\u916c\u52e4
p1499
sVContactFlag
p1500
I1
sVNickName
p1501
Vjacklee
p1502
sVRemarkPYQuanPin
p1503
g45
sVHeadImgUrl
p1504
V/cgi-bin/mmwebwx-bin/webwxgeticon?seq=646510409&username=@7c0346354edfb6b6cb5cd3b27da5de39&skey=@crypt_43ab139a_5213e1e2477146c575d9cc45804e06ae
p1505
sVUin
p1506
I0
sVStarFriend
p1507
I0
sVStatues
p1508
I0
sa(dp1509
VUserName
p1510
V@c4658f5812b16f24a790bf9e2624c61c55483a73e394918c9a539103455a0cf8
p1511
sVCity
p1512
V\u5e7f\u5dde
p1513
sVDisplayName
p1514
g45
sVUniFriend
p1515
I0
sVMemberList
p1516
(lp1517
sVPYQuanPin
p1518
Vkaixinjiuhao
p1519
sVRemarkPYInitial
p1520
g45
sVSex
p1521
I2
sVAppAccountFlag
p1522
I0
sVVerifyFlag
p1523
I0
sVProvince
p1524
V\u5e7f\u4e1c
p1525
sVKeyWord
p1526
g45
sVRemarkName
p1527
g45
sVPYInitial
p1528
VKXJH
p1529
sVIsOwner
p1530
I0
sVChatRoomId
p1531
I0
sVHideInputBarFlag
p1532
I0
sVEncryChatRoomId
p1533
g45
sVAttrStatus
p1534
I16912509
sVSnsFlag
p1535
I1
sVMemberCount
p1536
I0
sVOwnerUin
p1537
I0
sVAlias
p1538
g45
sVSignature
p1539
V\u4ee3\u529e\u8d44\u8d28\u65b0\u529e\u3001\u589e\u9879\u3001\u5347\u7ea7\uff0c\u5b89\u8bc1\u65b0\u529e\u3001\u5ef6\u671f\uff0c\u4eba\u5458\u501f\u8c03\u6302\u9760\u7b49\u3002
p1540
sVContactFlag
p1541
I3
sVNickName
p1542
V\u5f00\u5fc3\u5c31\u597d
p1543
sVRemarkPYQuanPin
p1544
g45
sVHeadImgUrl
p1545
V/cgi-bin/mmwebwx-bin/webwxgeticon?seq=663193113&username=@c4658f5812b16f24a790bf9e2624c61c55483a73e394918c9a539103455a0cf8&skey=@crypt_43ab139a_5213e1e2477146c575d9cc45804e06ae
p1546
sVUin
p1547
I0
sVStarFriend
p1548
I0
sVStatues
p1549
I0
sa(dp1550
VUserName
p1551
V@6f87c84eb429c1af9d264f7ec406bd9ad41a9fd59e64134a485a86275fb99036
p1552
sVCity
p1553
V\u4e09\u4e9a
p1554
sVDisplayName
p1555
g45
sVUniFriend
p1556
I0
sVMemberList
p1557
(lp1558
sVPYQuanPin
p1559
VMearanvlangspanclassemojiemoji1f485spanspanclassemojiemoji1f483span
p1560
sVRemarkPYInitial
p1561
g45
sVSex
p1562
I2
sVAppAccountFlag
p1563
I0
sVVerifyFlag
p1564
I0
sVProvince
p1565
V\u6d77\u5357
p1566
sVKeyWord
p1567
g45
sVRemarkName
p1568
g45
sVPYInitial
p1569
VMEARANLSPANCLASSEMOJIEMOJI1F485SPANSPANCLASSEMOJIEMOJI1F483SPAN
p1570
sVIsOwner
p1571
I0
sVChatRoomId
p1572
I0
sVHideInputBarFlag
p1573
I0
sVEncryChatRoomId
p1574
g45
sVAttrStatus
p1575
I20581
sVSnsFlag
p1576
I1
sVMemberCount
p1577
I0
sVOwnerUin
p1578
I0
sVAlias
p1579
g45
sVSignature
p1580
V\u673a\u4f1a\u603b\u5728\u6000\u7591\u72b9\u8c6b\u4e2d\u4ea7\u751f\u5728\u53eb\u597d\u540e\u6094\u4e2d\u7ed3\u675f\u2026\u2026
p1581
sVContactFlag
p1582
I3
sVNickName
p1583
VMeara \u5973\u72fc\u306e\U0001f485\U0001f483
p1584
sVRemarkPYQuanPin
p1585
g45
sVHeadImgUrl
p1586
V/cgi-bin/mmwebwx-bin/webwxgeticon?seq=663193130&username=@6f87c84eb429c1af9d264f7ec406bd9ad41a9fd59e64134a485a86275fb99036&skey=@crypt_43ab139a_5213e1e2477146c575d9cc45804e06ae
p1587
sVUin
p1588
I0
sVStarFriend
p1589
I0
sVStatues
p1590
I0
sa(dp1591
VUserName
p1592
V@fa1849fd984b129ad6b3c7b49bca3c5eadbe532aa7a56f024e5b6a86d08dc658
p1593
sVCity
p1594
V\u6c5f\u95e8
p1595
sVDisplayName
p1596
g45
sVUniFriend
p1597
I0
sVMemberList
p1598
(lp1599
sVPYQuanPin
p1600
Vyiqiedushijiade
p1601
sVRemarkPYInitial
p1602
g45
sVSex
p1603
I2
sVAppAccountFlag
p1604
I0
sVVerifyFlag
p1605
I0
sVProvince
p1606
V\u5e7f\u4e1c
p1607
sVKeyWord
p1608
g45
sVRemarkName
p1609
g45
sVPYInitial
p1610
VYQDSJD
p1611
sVIsOwner
p1612
I0
sVChatRoomId
p1613
I0
sVHideInputBarFlag
p1614
I0
sVEncryChatRoomId
p1615
g45
sVAttrStatus
p1616
I2147488037
sVSnsFlag
p1617
I1
sVMemberCount
p1618
I0
sVOwnerUin
p1619
I0
sVAlias
p1620
g45
sVSignature
p1621
V\u60f3\u60f3\u6211\u4eec\u66fe\u7ecf\u65e0\u5173\uff0c\u53c8\u4f55\u5fc5\u5f7c\u6b64\u4e3a\u96be\u3002
p1622
sVContactFlag
p1623
I3
sVNickName
p1624
V@\uff08\uff09\u4e00\u5207\u90fd\u662f\u5047\u7684\u3002\u3002)
p1625
sVRemarkPYQuanPin
p1626
g45
sVHeadImgUrl
p1627
V/cgi-bin/mmwebwx-bin/webwxgeticon?seq=663193222&username=@fa1849fd984b129ad6b3c7b49bca3c5eadbe532aa7a56f024e5b6a86d08dc658&skey=@crypt_43ab139a_5213e1e2477146c575d9cc45804e06ae
p1628
sVUin
p1629
I0
sVStarFriend
p1630
I0
sVStatues
p1631
I0
sasS'chatroomList'
p1632
(lp1633
sS'nickName'
p1634
g66
sS'mpList'
p1635
(lp1636
(dp1637
VUserName
p1638
V@0ed145cb46bea6177f00358c02e90ba8
p1639
sVCity
p1640
V\u6c5f\u95e8
p1641
sVDisplayName
p1642
g45
sVUniFriend
p1643
I0
sVMemberList
p1644
(lp1645
sVPYQuanPin
p1646
Vguangdongjiangmenmamawang
p1647
sVRemarkPYInitial
p1648
g45
sVSex
p1649
I0
sVAppAccountFlag
p1650
I0
sVVerifyFlag
p1651
I24
sVProvince
p1652
V\u5e7f\u4e1c
p1653
sVKeyWord
p1654
Vgh_
p1655
sVRemarkName
p1656
g45
sVPYInitial
p1657
VGDJMMMW
p1658
sVIsOwner
p1659
I0
sVChatRoomId
p1660
I0
sVHideInputBarFlag
p1661
I0
sVEncryChatRoomId
p1662
g45
sVAttrStatus
p1663
I0
sVSnsFlag
p1664
I0
sVMemberCount
p1665
I0
sVOwnerUin
p1666
I0
sVAlias
p1667
g45
sVSignature
p1668
V2005\u5e74\u6210\u7acb\uff0c\u5173\u6ce8\u6c5f\u95e8\u4e94\u9091\u5730\u533a\u5988\u5988\u3001\u5b69\u5b50\u3001\u5bb6\u5ead\u7684\u7f51\u7edc\u5e73\u53f0\u3002\u7ecf\u5e38\u7ec4\u7ec7\u7ebf\u4e0a\u3001\u7ebf\u4e0b\u4eb2\u5b50\u3001\u6148\u5584\u3001\u516c\u76ca\u7b49\u6d3b\u52a8\u3002http://www.jmmama.com.cn/
p1669
sVContactFlag
p1670
I3
sVNickName
p1671
V\u5e7f\u4e1c\u6c5f\u95e8\u5988\u5988\u7f51
p1672
sVRemarkPYQuanPin
p1673
g45
sVHeadImgUrl
p1674
V/cgi-bin/mmwebwx-bin/webwxgeticon?seq=660212708&username=@0ed145cb46bea6177f00358c02e90ba8&skey=@crypt_43ab139a_5213e1e2477146c575d9cc45804e06ae
p1675
sVUin
p1676
I0
sVStarFriend
p1677
I0
sVStatues
p1678
I0
sa(dp1679
VUserName
p1680
V@7748065b85661e359eb4701d9b60ec6d
p1681
sVCity
p1682
V\u6c5f\u95e8
p1683
sVDisplayName
p1684
g45
sVUniFriend
p1685
I0
sVMemberList
p1686
(lp1687
sVPYQuanPin
p1688
Vxinhuitianqi
p1689
sVRemarkPYInitial
p1690
g45
sVSex
p1691
I0
sVAppAccountFlag
p1692
I0
sVVerifyFlag
p1693
I24
sVProvince
p1694
V\u5e7f\u4e1c
p1695
sVKeyWord
p1696
Vgh_
p1697
sVRemarkName
p1698
g45
sVPYInitial
p1699
VXHTQ
p1700
sVIsOwner
p1701
I0
sVChatRoomId
p1702
I0
sVHideInputBarFlag
p1703
I0
sVEncryChatRoomId
p1704
g45
sVAttrStatus
p1705
I0
sVSnsFlag
p1706
I0
sVMemberCount
p1707
I0
sVOwnerUin
p1708
I0
sVAlias
p1709
g45
sVSignature
p1710
V\u63d0\u4f9b\u53ca\u65f6\u7684\u6c14\u8c61\u9884\u8b66\u9884\u62a5\u4fe1\u606f
p1711
sVContactFlag
p1712
I3
sVNickName
p1713
V\u65b0\u4f1a\u5929\u6c14
p1714
sVRemarkPYQuanPin
p1715
g45
sVHeadImgUrl
p1716
V/cgi-bin/mmwebwx-bin/webwxgeticon?seq=646510562&username=@7748065b85661e359eb4701d9b60ec6d&skey=@crypt_43ab139a_5213e1e2477146c575d9cc45804e06ae
p1717
sVUin
p1718
I0
sVStarFriend
p1719
I0
sVStatues
p1720
I0
sa(dp1721
VUserName
p1722
V@cdff5e4bb007fad88ed46059f52cab7a
p1723
sVCity
p1724
V\u5e7f\u5dde
p1725
sVDisplayName
p1726
g45
sVUniFriend
p1727
I0
sVMemberList
p1728
(lp1729
sVPYQuanPin
p1730
Vgongzhongpingtaianquanzhushou
p1731
sVRemarkPYInitial
p1732
g45
sVSex
p1733
I0
sVAppAccountFlag
p1734
I0
sVVerifyFlag
p1735
I24
sVProvince
p1736
V\u5e7f\u4e1c
p1737
sVKeyWord
p1738
Vmph
p1739
sVRemarkName
p1740
g45
sVPYInitial
p1741
VGZPTAQZS
p1742
sVIsOwner
p1743
I0
sVChatRoomId
p1744
I0
sVHideInputBarFlag
p1745
I0
sVEncryChatRoomId
p1746
g45
sVAttrStatus
p1747
I98459
sVSnsFlag
p1748
I0
sVMemberCount
p1749
I0
sVOwnerUin
p1750
I0
sVAlias
p1751
g45
sVSignature
p1752
V\u63d0\u4f9b\u5fae\u4fe1\u516c\u4f17\u53f7\u767b\u5f55\u548c\u7fa4\u53d1\u7b49\u5b89\u5168\u64cd\u4f5c\uff0c\u5728\u624b\u673a\u4e0a\u67e5\u6536\u6d88\u606f\u3001\u8bc4\u8bba\u3001\u8d5e\u8d4f\uff0c\u65b0\u5efa\u7fa4\u53d1\u548c\u67e5\u770b\u7fa4\u53d1\u5386\u53f2\u3002
p1753
sVContactFlag
p1754
I3
sVNickName
p1755
V\u516c\u4f17\u5e73\u53f0\u5b89\u5168\u52a9\u624b
p1756
sVRemarkPYQuanPin
p1757
g45
sVHeadImgUrl
p1758
V/cgi-bin/mmwebwx-bin/webwxgeticon?seq=632930117&username=@cdff5e4bb007fad88ed46059f52cab7a&skey=@crypt_43ab139a_5213e1e2477146c575d9cc45804e06ae
p1759
sVUin
p1760
I0
sVStarFriend
p1761
I0
sVStatues
p1762
I0
sa(dp1763
VUserName
p1764
V@46a87cf08e7c227ebf836286ba9ef05b
p1765
sVCity
p1766
V\u677e\u6c5f
p1767
sVDisplayName
p1768
g45
sVUniFriend
p1769
I0
sVMemberList
p1770
(lp1771
sVPYQuanPin
p1772
Vshilintony
p1773
sVRemarkPYInitial
p1774
g45
sVSex
p1775
I0
sVAppAccountFlag
p1776
I0
sVVerifyFlag
p1777
I24
sVProvince
p1778
V\u4e0a\u6d77
p1779
sVKeyWord
p1780
Vgh_
p1781
sVRemarkName
p1782
g45
sVPYInitial
p1783
VSLTONY
p1784
sVIsOwner
p1785
I0
sVChatRoomId
p1786
I0
sVHideInputBarFlag
p1787
I0
sVEncryChatRoomId
p1788
g45
sVAttrStatus
p1789
I0
sVSnsFlag
p1790
I0
sVMemberCount
p1791
I0
sVOwnerUin
p1792
I0
sVAlias
p1793
g45
sVSignature
p1794
V\u6765\u81ea\u65b0\u6d6a\u5fae\u535a\u8ba4\u8bc1\u8d44\u6599\uff1a\u6dd8\u5b9d\u5927\u5b66 \u8bb2\u5e08 @\u77f3\u6797tony
p1795
sVContactFlag
p1796
I3
sVNickName
p1797
V\u77f3\u6797tony
p1798
sVRemarkPYQuanPin
p1799
g45
sVHeadImgUrl
p1800
V/cgi-bin/mmwebwx-bin/webwxgeticon?seq=646510776&username=@46a87cf08e7c227ebf836286ba9ef05b&skey=@crypt_43ab139a_5213e1e2477146c575d9cc45804e06ae
p1801
sVUin
p1802
I0
sVStarFriend
p1803
I0
sVStatues
p1804
I0
sa(dp1805
VUserName
p1806
V@7629a8a03bae8c51b81c898873f6c368
p1807
sVCity
p1808
V\u82cf\u5dde
p1809
sVDisplayName
p1810
g45
sVUniFriend
p1811
I0
sVMemberList
p1812
(lp1813
sVPYQuanPin
p1814
VkaopuDazheng
p1815
sVRemarkPYInitial
p1816
g45
sVSex
p1817
I0
sVAppAccountFlag
p1818
I0
sVVerifyFlag
p1819
I24
sVProvince
p1820
V\u6c5f\u82cf
p1821
sVKeyWord
p1822
Vgh_
p1823
sVRemarkName
p1824
g45
sVPYInitial
p1825
VKPDAZ
p1826
sVIsOwner
p1827
I0
sVChatRoomId
p1828
I0
sVHideInputBarFlag
p1829
I0
sVEncryChatRoomId
p1830
g45
sVAttrStatus
p1831
I0
sVSnsFlag
p1832
I0
sVMemberCount
p1833
I0
sVOwnerUin
p1834
I0
sVAlias
p1835
g45
sVSignature
p1836
V1\u3001\u6dd8\u5b9d\u5b9e\u6218\u5206\u4eab\u7b2c\u4e00\u4eba\u963f\u6b63\u7684\u6210\u957f\u516c\u4f17\u53f7\uff0c\u7528\u4e8e\u5206\u4eab\u6dd8\u5b9d\u5b9e\u6218\u548c\u8fd0\u8425\u601d\u7ef4\u30022\u3001\u300a\u6dd8\u5b9d\u5e97\u957f\u76841\u5929\u300b\u4f5c\u8005\uff0c\u5168\u7f51\u9605\u8bfb\u91cf600\u4e07+ 3\u3001\u963f\u6b63\u5e2e\uff08\u6700\u6709\u4ef7\u503c\u7684\u6dd8\u5b9d\u5356\u5bb6\u9ad8\u6548\u793e\u4ea4\u5708\u5b50\uff09\u52a0V\u4fe1\uff1a634331145
p1837
sVContactFlag
p1838
I3
sVNickName
p1839
V\u9760\u8c31D\u963f\u6b63
p1840
sVRemarkPYQuanPin
p1841
g45
sVHeadImgUrl
p1842
V/cgi-bin/mmwebwx-bin/webwxgeticon?seq=646510779&username=@7629a8a03bae8c51b81c898873f6c368&skey=@crypt_43ab139a_5213e1e2477146c575d9cc45804e06ae
p1843
sVUin
p1844
I0
sVStarFriend
p1845
I0
sVStatues
p1846
I0
sa(dp1847
VUserName
p1848
V@ded1ea9c1a2eb828b365d6f8c09d43d7
p1849
sVCity
p1850
V\u54c8\u5c14\u6ee8
p1851
sVDisplayName
p1852
g45
sVUniFriend
p1853
I0
sVMemberList
p1854
(lp1855
sVPYQuanPin
p1856
Vmumenanzhuang
p1857
sVRemarkPYInitial
p1858
g45
sVSex
p1859
I0
sVAppAccountFlag
p1860
I0
sVVerifyFlag
p1861
I8
sVProvince
p1862
V\u9ed1\u9f99\u6c5f
p1863
sVKeyWord
p1864
Vgh_
p1865
sVRemarkName
p1866
g45
sVPYInitial
p1867
VMMAZ
p1868
sVIsOwner
p1869
I0
sVChatRoomId
p1870
I0
sVHideInputBarFlag
p1871
I0
sVEncryChatRoomId
p1872
g45
sVAttrStatus
p1873
I0
sVSnsFlag
p1874
I0
sVMemberCount
p1875
I0
sVOwnerUin
p1876
I0
sVAlias
p1877
g45
sVSignature
p1878
V\u54c8\u5c14\u6ee8\u3002\u8c37\u4ed3\u95e8\uff0c\u6728\u95e8\u5b89\u88c5\u3002\u55b7\u6f06\u95e8\uff0c\u70e4\u6f06\u95e8\uff0c\u94a2\u6728\u95e8\uff0c\u751f\u6001\u95e8\uff0c\u514d\u6f06\u95e8\uff0c\u5b9e\u6728\u5730\u811a\u7ebf\uff0c\u5b9e\u6728\u5bb6\u5177\uff0c\u62a4\u5899\u677f\uff0c\u5b9e\u6728\u7535\u89c6\u5899\uff0c\u6309\u95e8\uff0c\u6309\u9501\uff0c\u5bb6\u5177\u7ef4\u4fee\uff0c\u6d4b\u91cf\u5c3a\u5bf8\uff0c\u6709\u591a\u5e74\u5de5\u4f5c\u7ecf\u9a8c\uff0c\u6211\u4eec\u6709\u4f18\u79c0\u7684\u5de5\u4f5c\u56e2\u961f\uff0c\u9009\u62e9\u6211\u4eec\u8ba9\u60a8\u540e\u987e\u65e0\u5fe7\u3002 \u7535\u8bdd 15045665756\u5218\u5e84
p1879
sVContactFlag
p1880
I3
sVNickName
p1881
V\u6728\u95e8\u5b89\u88c5
p1882
sVRemarkPYQuanPin
p1883
g45
sVHeadImgUrl
p1884
V/cgi-bin/mmwebwx-bin/webwxgeticon?seq=660210248&username=@ded1ea9c1a2eb828b365d6f8c09d43d7&skey=@crypt_43ab139a_5213e1e2477146c575d9cc45804e06ae
p1885
sVUin
p1886
I0
sVStarFriend
p1887
I0
sVStatues
p1888
I0
sa(dp1889
VUserName
p1890
V@1d38742a6524f2a9fb909dd859aded55
p1891
sVCity
p1892
V\u6cc9\u5dde
p1893
sVDisplayName
p1894
g45
sVUniFriend
p1895
I0
sVMemberList
p1896
(lp1897
sVPYQuanPin
p1898
g45
sVRemarkPYInitial
p1899
g45
sVSex
p1900
I0
sVAppAccountFlag
p1901
I0
sVVerifyFlag
p1902
I8
sVProvince
p1903
V\u798f\u5efa
p1904
sVKeyWord
p1905
Vgh_
p1906
sVRemarkName
p1907
g45
sVPYInitial
p1908
g45
sVIsOwner
p1909
I0
sVChatRoomId
p1910
I0
sVHideInputBarFlag
p1911
I0
sVEncryChatRoomId
p1912
g45
sVAttrStatus
p1913
I0
sVSnsFlag
p1914
I0
sVMemberCount
p1915
I0
sVOwnerUin
p1916
I0
sVAlias
p1917
g45
sVSignature
p1918
V\u672c\u56e2\u961f\u627f\u63a5\u5404\u79cd\u539f\u6728\u95e8\uff0c\u5b9e\u6728\u95e8\uff0c\u5b9e\u6728\u590d\u5408\u95e8\u7684\u5b89\u88c5\u4e0e\u7ef4\u4fee\u5de5\u7a0b\uff0c\u56e2\u961f\u5341\u4f59\u4eba\uff0c\u79c9\u7740\u8bda\u4fe1\u52a1\u5b9e\u7684\u6001\u5ea6\uff0c\u613f\u4e0e\u5404\u4f4d\u8001\u677f\u5171\u521b\u7f8e\u597d\u5bb6\u56ed\u3002\u5de5\u4f5c\u4ea4\u7ed9\u6211\u4eec\uff0c\u8ba9\u60a8\u5168\u7a0b\u65e0\u5fe7\u3002\u8054\u7cfb\u7535\u8bdd\uff1a158  6090  9881.\u6b22\u8fce\u81f4\u7535\u54a8\u8be2\u3002
p1919
sVContactFlag
p1920
I3
sVNickName
p1921
g45
sVRemarkPYQuanPin
p1922
g45
sVHeadImgUrl
p1923
V/cgi-bin/mmwebwx-bin/webwxgeticon?seq=660210251&username=@1d38742a6524f2a9fb909dd859aded55&skey=@crypt_43ab139a_5213e1e2477146c575d9cc45804e06ae
p1924
sVUin
p1925
I0
sVStarFriend
p1926
I0
sVStatues
p1927
I0
sa(dp1928
VUserName
p1929
V@7a617ebeda152d3daa93641987f4e40b
p1930
sVCity
p1931
V\u9752\u5c9b
p1932
sVDisplayName
p1933
g45
sVUniFriend
p1934
I0
sVMemberList
p1935
(lp1936
sVPYQuanPin
p1937
Vmumenanzhuangdui
p1938
sVRemarkPYInitial
p1939
g45
sVSex
p1940
I0
sVAppAccountFlag
p1941
I0
sVVerifyFlag
p1942
I8
sVProvince
p1943
V\u5c71\u4e1c
p1944
sVKeyWord
p1945
Vgh_
p1946
sVRemarkName
p1947
g45
sVPYInitial
p1948
VMMAZD
p1949
sVIsOwner
p1950
I0
sVChatRoomId
p1951
I0
sVHideInputBarFlag
p1952
I0
sVEncryChatRoomId
p1953
g45
sVAttrStatus
p1954
I0
sVSnsFlag
p1955
I0
sVMemberCount
p1956
I0
sVOwnerUin
p1957
I0
sVAlias
p1958
g45
sVSignature
p1959
V\u4e13\u4e1a\u5b89\u88c5\u6728\u95e8 \u5ba4\u5185\u5957\u88c5\u95e8
p1960
sVContactFlag
p1961
I3
sVNickName
p1962
V\u6728\u95e8\u5b89\u88c5\u961f
p1963
sVRemarkPYQuanPin
p1964
g45
sVHeadImgUrl
p1965
V/cgi-bin/mmwebwx-bin/webwxgeticon?seq=660210254&username=@7a617ebeda152d3daa93641987f4e40b&skey=@crypt_43ab139a_5213e1e2477146c575d9cc45804e06ae
p1966
sVUin
p1967
I0
sVStarFriend
p1968
I0
sVStatues
p1969
I0
sa(dp1970
VUserName
p1971
V@a6c9a8f4b2773adf63531a22c951d9dd
p1972
sVCity
p1973
V\u5927\u5174
p1974
sVDisplayName
p1975
g45
sVUniFriend
p1976
I0
sVMemberList
p1977
(lp1978
sVPYQuanPin
p1979
Vzhuanyemumenanzhuangtuandui
p1980
sVRemarkPYInitial
p1981
g45
sVSex
p1982
I0
sVAppAccountFlag
p1983
I0
sVVerifyFlag
p1984
I8
sVProvince
p1985
V\u5317\u4eac
p1986
sVKeyWord
p1987
Vgh_
p1988
sVRemarkName
p1989
g45
sVPYInitial
p1990
VZYMMAZTD
p1991
sVIsOwner
p1992
I0
sVChatRoomId
p1993
I0
sVHideInputBarFlag
p1994
I0
sVEncryChatRoomId
p1995
g45
sVAttrStatus
p1996
I0
sVSnsFlag
p1997
I0
sVMemberCount
p1998
I0
sVOwnerUin
p1999
I0
sVAlias
p2000
g45
sVSignature
p2001
V\u4e13\u4e1a\u6728\u95e8\u5b89\u88c5\u56e2\u961f\uff1a\u627f\u63a5\u5168\u56fd\u8863\u67dc\u3001\u6a71\u67dc\u3001\u6c34\u67dc\u3001\u6728\u95e8\u3001\u6728\u9970\u9762\u3001\u6728\u5730\u677f\u7684\u5b89\u88c5\u4e0e\u7ef4\u4fee\u5de5\u7a0b\uff0c\u53ef\u8d1f\u8d23\u6d4b\u91cf\u3001\u5de5\u7a0b\u73b0\u573a\u7ba1\u7406\u3002\u6709\u610f\u8bf7\u8054\u7cfb13381280181\u300118614037786\u5510\u5de5\u3002\u60a8\u7684\u6ee1\u610f\u5c31\u662f\u6211\u7684\u8ffd\u6c42\u3002\u5408\u4f5c\u6109\u5feb
p2002
sVContactFlag
p2003
I3
sVNickName
p2004
V\u4e13\u4e1a\u6728\u95e8\u5b89\u88c5\u56e2\u961f
p2005
sVRemarkPYQuanPin
p2006
g45
sVHeadImgUrl
p2007
V/cgi-bin/mmwebwx-bin/webwxgeticon?seq=660210257&username=@a6c9a8f4b2773adf63531a22c951d9dd&skey=@crypt_43ab139a_5213e1e2477146c575d9cc45804e06ae
p2008
sVUin
p2009
I0
sVStarFriend
p2010
I0
sVStatues
p2011
I0
sa(dp2012
VUserName
p2013
V@cd298513a3acb05b037f867064c68de5
p2014
sVCity
p2015
V\u4e30\u53f0
p2016
sVDisplayName
p2017
g45
sVUniFriend
p2018
I0
sVMemberList
p2019
(lp2020
sVPYQuanPin
p2021
Vbeijingchuangkemumenanzhuang
p2022
sVRemarkPYInitial
p2023
g45
sVSex
p2024
I0
sVAppAccountFlag
p2025
I0
sVVerifyFlag
p2026
I8
sVProvince
p2027
V\u5317\u4eac
p2028
sVKeyWord
p2029
Vgh_
p2030
sVRemarkName
p2031
g45
sVPYInitial
p2032
VBJCKMMAZ
p2033
sVIsOwner
p2034
I0
sVChatRoomId
p2035
I0
sVHideInputBarFlag
p2036
I0
sVEncryChatRoomId
p2037
g45
sVAttrStatus
p2038
I0
sVSnsFlag
p2039
I0
sVMemberCount
p2040
I0
sVOwnerUin
p2041
I0
sVAlias
p2042
g45
sVSignature
p2043
V\u672c\u516c\u53f8\u662f\u4e00\u5bb6\u4e13\u4e1a\u6728\u95e8\u5b89\u88c5\uff0c\u6d4b\u91cf\uff0c\u7ef4\u4fee\u7684\u5b89\u88c5\u516c\u53f8\u3002\u627f\u63a5\u5168\u5317\u4eac\u5730\u533a\u7684\u7f51\u8d2d\u6728\u95e8\u5b89\u88c5\u4e1a\u52a1\uff0c\u5b89\u88c5\u514d\u6f06\u95e8\uff0c\u70e4\u6f06\u95e8\uff0c\u5b9e\u6728\u95e8\uff0c\u94a2\u6728\u95e8\uff0c\u4e3a\u5168\u56fd\u7684\u6728\u95e8\u5382\u5bb6\u670d\u52a1\u3002\u8ba9\u987e\u5ba2\u6ee1\u610f\u3002\u7535\u8bdd13581883705
p2044
sVContactFlag
p2045
I3
sVNickName
p2046
V\u5317\u4eac\u521b\u5ba2\u6728\u95e8\u5b89\u88c5
p2047
sVRemarkPYQuanPin
p2048
g45
sVHeadImgUrl
p2049
V/cgi-bin/mmwebwx-bin/webwxgeticon?seq=660210260&username=@cd298513a3acb05b037f867064c68de5&skey=@crypt_43ab139a_5213e1e2477146c575d9cc45804e06ae
p2050
sVUin
p2051
I0
sVStarFriend
p2052
I0
sVStatues
p2053
I0
sa(dp2054
VUserName
p2055
V@0cf925be58cd345283be648775a7a3a6
p2056
sVCity
p2057
V\u5408\u80a5
p2058
sVDisplayName
p2059
g45
sVUniFriend
p2060
I0
sVMemberList
p2061
(lp2062
sVPYQuanPin
p2063
Vhefeimumenanzhuangdui
p2064
sVRemarkPYInitial
p2065
g45
sVSex
p2066
I0
sVAppAccountFlag
p2067
I0
sVVerifyFlag
p2068
I8
sVProvince
p2069
V\u5b89\u5fbd
p2070
sVKeyWord
p2071
Vgh_
p2072
sVRemarkName
p2073
g45
sVPYInitial
p2074
VHFMMAZD
p2075
sVIsOwner
p2076
I0
sVChatRoomId
p2077
I0
sVHideInputBarFlag
p2078
I0
sVEncryChatRoomId
p2079
g45
sVAttrStatus
p2080
I0
sVSnsFlag
p2081
I0
sVMemberCount
p2082
I0
sVOwnerUin
p2083
I0
sVAlias
p2084
g45
sVSignature
p2085
V\u672c\u56e2\u961f\u627f\u63a5\u5404\u79cd\u539f\u6728\u95e8\uff0c\u5b9e\u6728\u95e8\uff0c\u5b9e\u6728\u590d\u5408\u95e8\u7684\u5b89\u88c5\u4e0e\u7ef4\u4fee\u5de5\u7a0b\uff0c\u79c9\u7740\u8bda\u4fe1\u52a1\u5b9e\u7684\u6001\u5ea6\uff0c\u613f\u4e0e\u5404\u4f4d\u8001\u677f\u5171\u521b\u7f8e\u597d\u5bb6\u56ed\u3002\u5de5\u4f5c\u4ea4\u7ed9\u6211\u4eec\uff0c\u8ba9\u60a8\u5168\u7a0b\u65e0\u5fe7\u3002\u8054\u7cfb\u7535\u8bdd13856063710\u5c0f\u9a6c
p2086
sVContactFlag
p2087
I3
sVNickName
p2088
V\u5408\u80a5\u6728\u95e8\u5b89\u88c5\u961f
p2089
sVRemarkPYQuanPin
p2090
g45
sVHeadImgUrl
p2091
V/cgi-bin/mmwebwx-bin/webwxgeticon?seq=660210263&username=@0cf925be58cd345283be648775a7a3a6&skey=@crypt_43ab139a_5213e1e2477146c575d9cc45804e06ae
p2092
sVUin
p2093
I0
sVStarFriend
p2094
I0
sVStatues
p2095
I0
sa(dp2096
VUserName
p2097
V@3e28013fdac8642cdae109cc23e47d85
p2098
sVCity
p2099
g45
sVDisplayName
p2100
g45
sVUniFriend
p2101
I0
sVMemberList
p2102
(lp2103
sVPYQuanPin
p2104
Vxiongdimumenanzhuang
p2105
sVRemarkPYInitial
p2106
g45
sVSex
p2107
I0
sVAppAccountFlag
p2108
I0
sVVerifyFlag
p2109
I8
sVProvince
p2110
g45
sVKeyWord
p2111
Vgh_
p2112
sVRemarkName
p2113
g45
sVPYInitial
p2114
VXDMMAZ
p2115
sVIsOwner
p2116
I0
sVChatRoomId
p2117
I0
sVHideInputBarFlag
p2118
I0
sVEncryChatRoomId
p2119
g45
sVAttrStatus
p2120
I0
sVSnsFlag
p2121
I0
sVMemberCount
p2122
I0
sVOwnerUin
p2123
I0
sVAlias
p2124
g45
sVSignature
p2125
V\u672c\u56e2\u961f\u627f\u63a5\u798f\u5efa\u6cc9\u5dde\u5730\u533a\u5404\u79cd\u539f\u6728\u95e8\uff0c\u5b9e\u6728\u95e8\uff0c\u5b9e\u6728\u590d\u5408\u95e8\u7684\u5b89\u88c5\u4e0e\u7ef4\u4fee\u5de5\u7a0b\uff0c\u56e2\u961f\u5341\u4f59\u4eba\uff0c\u4ece\u4e8b\u6728\u95e8\u5b89\u88c5\u884c\u4e1a8\u5e74\uff0c\u79c9\u7740\u8bda\u4fe1\u52a1\u5b9e\u7684\u6001\u5ea6\uff0c\u613f\u4e0e\u5404\u4f4d\u8001\u677f\u5171\u521b\u7f8e\u597d\u5bb6\u56ed\u3002\u5de5\u4f5c\u4ea4\u7ed9\u6211\u4eec\uff0c\u8ba9\u60a8\u5168\u7a0b\u65e0\u5fe7\u3002\u8054\u7cfb\u7535\u8bdd\uff1a158  6090  9881.\u6b22\u8fce\u81f4\u7535\u54a8\u8be2\u3002
p2126
sVContactFlag
p2127
I3
sVNickName
p2128
V\u5144\u5f1f\u6728\u95e8\u5b89\u88c5
p2129
sVRemarkPYQuanPin
p2130
g45
sVHeadImgUrl
p2131
V/cgi-bin/mmwebwx-bin/webwxgeticon?seq=660210267&username=@3e28013fdac8642cdae109cc23e47d85&skey=@crypt_43ab139a_5213e1e2477146c575d9cc45804e06ae
p2132
sVUin
p2133
I0
sVStarFriend
p2134
I0
sVStatues
p2135
I0
sa(dp2136
VUserName
p2137
V@638f73abf246461f42bf0694ae22a88e
p2138
sVCity
p2139
V\u95f5\u884c
p2140
sVDisplayName
p2141
g45
sVUniFriend
p2142
I0
sVMemberList
p2143
(lp2144
sVPYQuanPin
p2145
Vshanghaimumenanzhuangdui
p2146
sVRemarkPYInitial
p2147
g45
sVSex
p2148
I0
sVAppAccountFlag
p2149
I0
sVVerifyFlag
p2150
I8
sVProvince
p2151
V\u4e0a\u6d77
p2152
sVKeyWord
p2153
Vgh_
p2154
sVRemarkName
p2155
g45
sVPYInitial
p2156
VSHMMAZD
p2157
sVIsOwner
p2158
I0
sVChatRoomId
p2159
I0
sVHideInputBarFlag
p2160
I0
sVEncryChatRoomId
p2161
g45
sVAttrStatus
p2162
I0
sVSnsFlag
p2163
I0
sVMemberCount
p2164
I0
sVOwnerUin
p2165
I0
sVAlias
p2166
g45
sVSignature
p2167
V\u672c\u56e2\u961f\u5728\u4e0a\u6d77\u4ece\u4e8b\u6728\u95e8\u6d4b\u91cf\u5b89\u88c5\u591a\u5e74\u79ef\u7d2f\u4e86\u4e30\u5bcc\u7684\u6280\u672f\u548c\u7ecf\u9a8c\uff0c\u5728\u540c\u884c\u4e1a\u4e2d\u6811\u7acb\u4e86\u826f\u597d\u7684\u4fe1\u8a89\u548c\u699c\u6837\uff01\u56e0\u4e3a\u719f\u7ec3\uff0c\u6240\u4ee5\u4e13\u4e1a\u3002\u56e0\u4e3a\u4e13\u4e1a\uff0c\u624d\u80fd\u6210\u4e3a\u4e13\u5bb6\u3002\u4efb\u4f55\u5ba2\u6237\u90fd\u4e0d\u4f1a\u548c\u4e1a\u4f59\u9009\u624b\u73a9\u3002\u8bf7\u63d0\u524d\u9884\u7ea6\u3002\u8054\u7cfb13917899689      qq:410333529
p2168
sVContactFlag
p2169
I3
sVNickName
p2170
V\u4e0a\u6d77\u6728\u95e8\u5b89\u88c5\u961f
p2171
sVRemarkPYQuanPin
p2172
g45
sVHeadImgUrl
p2173
V/cgi-bin/mmwebwx-bin/webwxgeticon?seq=660210270&username=@638f73abf246461f42bf0694ae22a88e&skey=@crypt_43ab139a_5213e1e2477146c575d9cc45804e06ae
p2174
sVUin
p2175
I0
sVStarFriend
p2176
I0
sVStatues
p2177
I0
sa(dp2178
VUserName
p2179
V@0e4206ab30fc48b9c2d68506287f2fe5
p2180
sVCity
p2181
V\u662d\u901a
p2182
sVDisplayName
p2183
g45
sVUniFriend
p2184
I0
sVMemberList
p2185
(lp2186
sVPYQuanPin
p2187
Vzhuanyemumenanzhuang
p2188
sVRemarkPYInitial
p2189
g45
sVSex
p2190
I0
sVAppAccountFlag
p2191
I0
sVVerifyFlag
p2192
I8
sVProvince
p2193
V\u4e91\u5357
p2194
sVKeyWord
p2195
Vgh_
p2196
sVRemarkName
p2197
g45
sVPYInitial
p2198
VZYMMAZ
p2199
sVIsOwner
p2200
I0
sVChatRoomId
p2201
I0
sVHideInputBarFlag
p2202
I0
sVEncryChatRoomId
p2203
g45
sVAttrStatus
p2204
I0
sVSnsFlag
p2205
I0
sVMemberCount
p2206
I0
sVOwnerUin
p2207
I0
sVAlias
p2208
g45
sVSignature
p2209
V\u6728\u95e8\u5b89\u88c5
p2210
sVContactFlag
p2211
I3
sVNickName
p2212
V\u4e13\u4e1a\u6728\u95e8\u5b89\u88c5
p2213
sVRemarkPYQuanPin
p2214
g45
sVHeadImgUrl
p2215
V/cgi-bin/mmwebwx-bin/webwxgeticon?seq=660210273&username=@0e4206ab30fc48b9c2d68506287f2fe5&skey=@crypt_43ab139a_5213e1e2477146c575d9cc45804e06ae
p2216
sVUin
p2217
I0
sVStarFriend
p2218
I0
sVStatues
p2219
I0
sa(dp2220
VUserName
p2221
V@84a3b2727b99e9c2707b3bf55ed06117
p2222
sVCity
p2223
V\u5e7f\u5dde
p2224
sVDisplayName
p2225
g45
sVUniFriend
p2226
I0
sVMemberList
p2227
(lp2228
sVPYQuanPin
p2229
Vmumenfangdaomentuilamenxiaoshouanzhuang
p2230
sVRemarkPYInitial
p2231
g45
sVSex
p2232
I0
sVAppAccountFlag
p2233
I0
sVVerifyFlag
p2234
I8
sVProvince
p2235
V\u5e7f\u4e1c
p2236
sVKeyWord
p2237
Vgh_
p2238
sVRemarkName
p2239
g45
sVPYInitial
p2240
VMMFDMTLMXSAZ
p2241
sVIsOwner
p2242
I0
sVChatRoomId
p2243
I0
sVHideInputBarFlag
p2244
I0
sVEncryChatRoomId
p2245
g45
sVAttrStatus
p2246
I0
sVSnsFlag
p2247
I0
sVMemberCount
p2248
I0
sVOwnerUin
p2249
I0
sVAlias
p2250
g45
sVSignature
p2251
V\u9500\u552e\u5b89\u88c5\u5404\u79cd\u6728\u95e8\uff0c\u4e0d\u9508\u94a2\u9632\u76d7\u95e8\uff0c\u94dd\u5408\u91d1\u95e8\uff0c\u54c1\u79cd\u9f50\u5168\u4ef7\u683c\u5b9e\u5728\uff0c\u6b22\u8fce\u60e0\u987e
p2252
sVContactFlag
p2253
I3
sVNickName
p2254
V\u6728\u95e8\u9632\u76d7\u95e8\u63a8\u62c9\u95e8\u9500\u552e\u5b89\u88c5
p2255
sVRemarkPYQuanPin
p2256
g45
sVHeadImgUrl
p2257
V/cgi-bin/mmwebwx-bin/webwxgeticon?seq=660210276&username=@84a3b2727b99e9c2707b3bf55ed06117&skey=@crypt_43ab139a_5213e1e2477146c575d9cc45804e06ae
p2258
sVUin
p2259
I0
sVStarFriend
p2260
I0
sVStatues
p2261
I0
sa(dp2262
VUserName
p2263
V@6a5f6019207227c85d9674f06b1f25d7
p2264
sVCity
p2265
V\u5e38\u5dde
p2266
sVDisplayName
p2267
g45
sVUniFriend
p2268
I0
sVMemberList
p2269
(lp2270
sVPYQuanPin
p2271
Vmumenshangxueyuan
p2272
sVRemarkPYInitial
p2273
g45
sVSex
p2274
I0
sVAppAccountFlag
p2275
I0
sVVerifyFlag
p2276
I8
sVProvince
p2277
V\u6c5f\u82cf
p2278
sVKeyWord
p2279
Vgh_
p2280
sVRemarkName
p2281
g45
sVPYInitial
p2282
VMMSXY
p2283
sVIsOwner
p2284
I0
sVChatRoomId
p2285
I0
sVHideInputBarFlag
p2286
I0
sVEncryChatRoomId
p2287
g45
sVAttrStatus
p2288
I0
sVSnsFlag
p2289
I0
sVMemberCount
p2290
I0
sVOwnerUin
p2291
I0
sVAlias
p2292
g45
sVSignature
p2293
V\u5173\u6ce8\u6728\u95e8\u884c\u4e1a\u4fe1\u606f\uff0c\u5f15\u5bfc\u6728\u95e8\u884c\u4e1a\u53d1\u5c55\uff01\u6bcf\u5929\u63a8\u9001\u7cbe\u5f69\u7684\u5b9e\u6218\u8425\u9500\u6848\u4f8b\u548c\u5de5\u5177\uff0c\u95e8\u4e1a\u4eba\u7684\u65b0\u5a92\u4f53\u5e73\u53f0\u3002\u8ba2\u9605\u53f7\uff1amumensxy
p2294
sVContactFlag
p2295
I3
sVNickName
p2296
V\u6728\u95e8\u5546\u5b66\u9662
p2297
sVRemarkPYQuanPin
p2298
g45
sVHeadImgUrl
p2299
V/cgi-bin/mmwebwx-bin/webwxgeticon?seq=660210283&username=@6a5f6019207227c85d9674f06b1f25d7&skey=@crypt_43ab139a_5213e1e2477146c575d9cc45804e06ae
p2300
sVUin
p2301
I0
sVStarFriend
p2302
I0
sVStatues
p2303
I0
sa(dp2304
VUserName
p2305
V@7f01aae64cecdceabfdf51b29bf4305b
p2306
sVCity
p2307
V\u6c5f\u95e8
p2308
sVDisplayName
p2309
g45
sVUniFriend
p2310
I0
sVMemberList
p2311
(lp2312
sVPYQuanPin
p2313
Vjiangmenzhuangxiujiancai
p2314
sVRemarkPYInitial
p2315
g45
sVSex
p2316
I0
sVAppAccountFlag
p2317
I0
sVVerifyFlag
p2318
I8
sVProvince
p2319
V\u5e7f\u4e1c
p2320
sVKeyWord
p2321
Vgh_
p2322
sVRemarkName
p2323
g45
sVPYInitial
p2324
VJMZXJC
p2325
sVIsOwner
p2326
I0
sVChatRoomId
p2327
I0
sVHideInputBarFlag
p2328
I0
sVEncryChatRoomId
p2329
g45
sVAttrStatus
p2330
I0
sVSnsFlag
p2331
I0
sVMemberCount
p2332
I0
sVOwnerUin
p2333
I0
sVAlias
p2334
g45
sVSignature
p2335
V\u627f\u63a5\u5bb6\u88c5\uff0c\u5de5\u88c5\uff0c\u5e76\u8bbe\u8ba1\uff0c\u65bd\u5de5\uff0c\u9500\u552e\u88c5\u4fee\u5efa\u6750\u7b49\u4e00\u7ad9\u5f0f\u7efc\u5408\u670d\u52a1\u3002\u7ecf\u8425\u8303\u56f4\uff1a\u5404\u79cd\u89c4\u683c\u629b\u5149\u7816\uff0c\u5fae\u6676\uff0c\u4eff\u53e4\u7816\uff0c\u9a6c\u8d5b\u514b\uff0c\u5916\u5899\u7816\uff0c\u74f7\u7247\uff0c\u6d01\u5177\uff0c\u536b\u6d74\u7528\u54c1\u7b49\u3002
p2336
sVContactFlag
p2337
I3
sVNickName
p2338
V\u6c5f\u95e8\u88c5\u4fee\u5efa\u6750
p2339
sVRemarkPYQuanPin
p2340
g45
sVHeadImgUrl
p2341
V/cgi-bin/mmwebwx-bin/webwxgeticon?seq=660210310&username=@7f01aae64cecdceabfdf51b29bf4305b&skey=@crypt_43ab139a_5213e1e2477146c575d9cc45804e06ae
p2342
sVUin
p2343
I0
sVStarFriend
p2344
I0
sVStatues
p2345
I0
sa(dp2346
VUserName
p2347
V@ac8ec509325875d6f88b3af5cb508c4a
p2348
sVCity
p2349
V\u82cf\u5dde
p2350
sVDisplayName
p2351
g45
sVUniFriend
p2352
I0
sVMemberList
p2353
(lp2354
sVPYQuanPin
p2355
Vweijiaanzhuang
p2356
sVRemarkPYInitial
p2357
g45
sVSex
p2358
I0
sVAppAccountFlag
p2359
I0
sVVerifyFlag
p2360
I8
sVProvince
p2361
V\u6c5f\u82cf
p2362
sVKeyWord
p2363
Vgh_
p2364
sVRemarkName
p2365
g45
sVPYInitial
p2366
VWJAZ
p2367
sVIsOwner
p2368
I0
sVChatRoomId
p2369
I0
sVHideInputBarFlag
p2370
I0
sVEncryChatRoomId
p2371
g45
sVAttrStatus
p2372
I0
sVSnsFlag
p2373
I0
sVMemberCount
p2374
I0
sVOwnerUin
p2375
I0
sVAlias
p2376
g45
sVSignature
p2377
V\u672a\u5bb6\u6728\u95e8\u5b89\u88c5\u670d\u52a1\u5e73\u53f0\uff0c\u4e3a\u6280\u80fd\u52b3\u52a8\u8005\u63d0\u9ad8\u6536\u5165\u4e0e\u6280\u80fd\uff0c\u6253\u9020\u4e00\u4e2a\u4e13\u4e1a\u7684\u6728\u95e8\u5b89\u88c5\u670d\u52a1\u62c5\u4fdd\u4ea4\u6613\u5e73\u53f0\uff0c\u52a9\u529b\u6728\u95e8\u884c\u4e1a\u7535\u5b50\u5546\u52a1\u7684\u5feb\u901f\u53d1\u5c55\u3002
p2378
sVContactFlag
p2379
I3
sVNickName
p2380
V\u672a\u5bb6\u5b89\u88c5
p2381
sVRemarkPYQuanPin
p2382
g45
sVHeadImgUrl
p2383
V/cgi-bin/mmwebwx-bin/webwxgeticon?seq=660210360&username=@ac8ec509325875d6f88b3af5cb508c4a&skey=@crypt_43ab139a_5213e1e2477146c575d9cc45804e06ae
p2384
sVUin
p2385
I0
sVStarFriend
p2386
I0
sVStatues
p2387
I0
sa(dp2388
VUserName
p2389
V@18866d61a347227a52b2c3e187a8346b
p2390
sVCity
p2391
V\u957f\u6625
p2392
sVDisplayName
p2393
g45
sVUniFriend
p2394
I0
sVMemberList
p2395
(lp2396
sVPYQuanPin
p2397
Vxiongdimumen1989
p2398
sVRemarkPYInitial
p2399
g45
sVSex
p2400
I0
sVAppAccountFlag
p2401
I0
sVVerifyFlag
p2402
I24
sVProvince
p2403
V\u5409\u6797
p2404
sVKeyWord
p2405
Vgh_
p2406
sVRemarkName
p2407
g45
sVPYInitial
p2408
VXDMM1989
p2409
sVIsOwner
p2410
I0
sVChatRoomId
p2411
I0
sVHideInputBarFlag
p2412
I0
sVEncryChatRoomId
p2413
g45
sVAttrStatus
p2414
I0
sVSnsFlag
p2415
I0
sVMemberCount
p2416
I0
sVOwnerUin
p2417
I0
sVAlias
p2418
g45
sVSignature
p2419
VSIBLING\u5c06\u6c38\u6052\u7684\u7f8e\u5b66\u3001\u4e0a\u4e58\u7684\u6750\u8d28\u4e0e\u7cbe\u6e5b\u7684\u5de5\u827a\u76f8\u7ed3\u5408\uff0c\u53ea\u4e3a\u80fd\u4f53\u73b0\u51fa\u7cbe\u81f4\u7684\u7ec6\u8282\u3002\u64cd\u5200\u4e8e\u4e16\u754c\u77e5\u540d\u8bbe\u8ba1\u5e08\u548c\u767e\u5e74\u5144\u5f1f\u4eba\u7684\u62fc\u640f\uff0c\u4e3a\u5168\u7403\u9ad8\u7aef\u9152\u5e97\u548c\u5bb6\u5ead\u521b\u9020\u51fa\u5962\u534e\u4e0d\u51e1\u7684\u6e29\u99a8\u6c1b\u56f4\u3002
p2420
sVContactFlag
p2421
I3
sVNickName
p2422
V\u5144\u5f1f\u6728\u95e81989
p2423
sVRemarkPYQuanPin
p2424
g45
sVHeadImgUrl
p2425
V/cgi-bin/mmwebwx-bin/webwxgeticon?seq=660210419&username=@18866d61a347227a52b2c3e187a8346b&skey=@crypt_43ab139a_5213e1e2477146c575d9cc45804e06ae
p2426
sVUin
p2427
I0
sVStarFriend
p2428
I0
sVStatues
p2429
I0
sa(dp2430
VUserName
p2431
V@64fc6181a17312b70725b90aca23ca4b
p2432
sVCity
p2433
V\u671d\u9633
p2434
sVDisplayName
p2435
g45
sVUniFriend
p2436
I0
sVMemberList
p2437
(lp2438
sVPYQuanPin
p2439
Vguijiaoqi
p2440
sVRemarkPYInitial
p2441
g45
sVSex
p2442
I0
sVAppAccountFlag
p2443
I0
sVVerifyFlag
p2444
I24
sVProvince
p2445
V\u5317\u4eac
p2446
sVKeyWord
p2447
Vgh_
p2448
sVRemarkName
p2449
g45
sVPYInitial
p2450
VGJQ
p2451
sVIsOwner
p2452
I0
sVChatRoomId
p2453
I0
sVHideInputBarFlag
p2454
I0
sVEncryChatRoomId
p2455
g45
sVAttrStatus
p2456
I0
sVSnsFlag
p2457
I0
sVMemberCount
p2458
I0
sVOwnerUin
p2459
I0
sVAlias
p2460
g45
sVSignature
p2461
V\u9b3c\u811a\u4e03\uff0c\u771f\u540d\u6587\u5fb7\uff0c\u81ea\u5a92\u4f53\u4eba\u3002\u505a\u81ea\u5df1\uff0c\u7231\u751f\u6d3b\uff01
p2462
sVContactFlag
p2463
I3
sVNickName
p2464
V\u9b3c\u811a\u4e03
p2465
sVRemarkPYQuanPin
p2466
g45
sVHeadImgUrl
p2467
V/cgi-bin/mmwebwx-bin/webwxgeticon?seq=660210624&username=@64fc6181a17312b70725b90aca23ca4b&skey=@crypt_43ab139a_5213e1e2477146c575d9cc45804e06ae
p2468
sVUin
p2469
I0
sVStarFriend
p2470
I0
sVStatues
p2471
I0
sa(dp2472
VUserName
p2473
V@1df511cbca6ae0d413a502b8a9a03305
p2474
sVCity
p2475
V\u5357\u4eac
p2476
sVDisplayName
p2477
g45
sVUniFriend
p2478
I0
sVMemberList
p2479
(lp2480
sVPYQuanPin
p2481
Vlubanyuan
p2482
sVRemarkPYInitial
p2483
g45
sVSex
p2484
I0
sVAppAccountFlag
p2485
I0
sVVerifyFlag
p2486
I24
sVProvince
p2487
V\u6c5f\u82cf
p2488
sVKeyWord
p2489
Vgh_
p2490
sVRemarkName
p2491
g45
sVPYInitial
p2492
VLBY
p2493
sVIsOwner
p2494
I0
sVChatRoomId
p2495
I0
sVHideInputBarFlag
p2496
I0
sVEncryChatRoomId
p2497
g45
sVAttrStatus
p2498
I0
sVSnsFlag
p2499
I0
sVMemberCount
p2500
I0
sVOwnerUin
p2501
I0
sVAlias
p2502
g45
sVSignature
p2503
V\u9c81\u73ed\u56ed\uff0d\u81f4\u529b\u4e8e\u63d0\u5347\u4e2d\u56fd\u5bb6\u5c45\u8bbe\u8ba1\u4e0e\u5236\u9020\u6c34\u5e73\uff01\u5e73\u53f0\u56f4\u7ed5\u65b0\u6750\u6599\u3001\u65b0\u5de5\u827a\u3001\u65b0\u6280\u672f\u7684\u5e94\u7528\u63a8\u5e7f\uff0c\u5b9e\u73b0\u4f20\u7edf\u5bb6\u5c45\u751f\u4ea7\u5411\u667a\u80fd\u5236\u9020\u7684\u8f6c\u578b\u5347\u7ea7\uff0c\u4e3a\u5bb6\u5c45\u5236\u9020\u63d0\u4f9b\u7cfb\u7edf\u5316\u89e3\u51b3\u65b9\u6848\u7684\u4e92\u8054\u7f51\u670d\u52a1\u5e73\u53f0\u3002
p2504
sVContactFlag
p2505
I3
sVNickName
p2506
V\u9c81\u73ed\u56ed
p2507
sVRemarkPYQuanPin
p2508
g45
sVHeadImgUrl
p2509
V/cgi-bin/mmwebwx-bin/webwxgeticon?seq=660210764&username=@1df511cbca6ae0d413a502b8a9a03305&skey=@crypt_43ab139a_5213e1e2477146c575d9cc45804e06ae
p2510
sVUin
p2511
I0
sVStarFriend
p2512
I0
sVStatues
p2513
I0
sa(dp2514
VUserName
p2515
V@7ee82bfc34b7e473d74a608b503b96e7
p2516
sVCity
p2517
V\u671d\u9633
p2518
sVDisplayName
p2519
g45
sVUniFriend
p2520
I0
sVMemberList
p2521
(lp2522
sVPYQuanPin
p2523
VTATAmumen
p2524
sVRemarkPYInitial
p2525
g45
sVSex
p2526
I0
sVAppAccountFlag
p2527
I0
sVVerifyFlag
p2528
I24
sVProvince
p2529
V\u5317\u4eac
p2530
sVKeyWord
p2531
Vgh_
p2532
sVRemarkName
p2533
g45
sVPYInitial
p2534
VTATAMM
p2535
sVIsOwner
p2536
I0
sVChatRoomId
p2537
I0
sVHideInputBarFlag
p2538
I0
sVEncryChatRoomId
p2539
g45
sVAttrStatus
p2540
I0
sVSnsFlag
p2541
I0
sVMemberCount
p2542
I0
sVOwnerUin
p2543
I0
sVAlias
p2544
g45
sVSignature
p2545
VTATA\u6728\u95e8\u5b98\u65b9\u5fae\u4fe1\uff0c\u4e13\u6ce8\u89e3\u51b3\u60a8\u7684\u95ee\u9898\uff01
p2546
sVContactFlag
p2547
I3
sVNickName
p2548
VTATA\u6728\u95e8
p2549
sVRemarkPYQuanPin
p2550
g45
sVHeadImgUrl
p2551
V/cgi-bin/mmwebwx-bin/webwxgeticon?seq=660210775&username=@7ee82bfc34b7e473d74a608b503b96e7&skey=@crypt_43ab139a_5213e1e2477146c575d9cc45804e06ae
p2552
sVUin
p2553
I0
sVStarFriend
p2554
I0
sVStatues
p2555
I0
sa(dp2556
VUserName
p2557
V@240d5f7c279064a3a9dc695d2aa0a0c5
p2558
sVCity
p2559
V\u901a\u5dde
p2560
sVDisplayName
p2561
g45
sVUniFriend
p2562
I0
sVMemberList
p2563
(lp2564
sVPYQuanPin
p2565
VTATAmumen
p2566
sVRemarkPYInitial
p2567
g45
sVSex
p2568
I0
sVAppAccountFlag
p2569
I0
sVVerifyFlag
p2570
I24
sVProvince
p2571
V\u5317\u4eac
p2572
sVKeyWord
p2573
Vgh_
p2574
sVRemarkName
p2575
g45
sVPYInitial
p2576
VTATAMM
p2577
sVIsOwner
p2578
I0
sVChatRoomId
p2579
I0
sVHideInputBarFlag
p2580
I0
sVEncryChatRoomId
p2581
g45
sVAttrStatus
p2582
I0
sVSnsFlag
p2583
I0
sVMemberCount
p2584
I0
sVOwnerUin
p2585
I0
sVAlias
p2586
g45
sVSignature
p2587
V\u6728\u95e8\u4e13\u5bb6\uff0c\u4e13\u6ce8\u89e3\u51b3\u60a8\u7684\u95ee\u9898\uff01\u5173\u4e8e\u5bb6\u88c5\u3001\u6728\u95e8\u60a8\u6709\u4efb\u4f55\u95ee\u9898\u90fd\u53ef\u4ee5\u968f\u65f6\u6765\u95ee\uff0c\u613f\u610f\u505a\u60a8\u7684\u5bb6\u88c5\u987e\u95ee\u3002
p2588
sVContactFlag
p2589
I3
sVNickName
p2590
VTATA\u6728\u95e8
p2591
sVRemarkPYQuanPin
p2592
g45
sVHeadImgUrl
p2593
V/cgi-bin/mmwebwx-bin/webwxgeticon?seq=660210777&username=@240d5f7c279064a3a9dc695d2aa0a0c5&skey=@crypt_43ab139a_5213e1e2477146c575d9cc45804e06ae
p2594
sVUin
p2595
I0
sVStarFriend
p2596
I0
sVStatues
p2597
I0
sa(dp2598
VUserName
p2599
V@fc85f5286638bc5fee2692a70a33691f
p2600
sVCity
p2601
V\u671d\u9633
p2602
sVDisplayName
p2603
g45
sVUniFriend
p2604
I0
sVMemberList
p2605
(lp2606
sVPYQuanPin
p2607
Vxiuchaoxuanzhuangxiu
p2608
sVRemarkPYInitial
p2609
g45
sVSex
p2610
I0
sVAppAccountFlag
p2611
I0
sVVerifyFlag
p2612
I24
sVProvince
p2613
V\u5317\u4eac
p2614
sVKeyWord
p2615
Vgh_
p2616
sVRemarkName
p2617
g45
sVPYInitial
p2618
VXCXZX
p2619
sVIsOwner
p2620
I0
sVChatRoomId
p2621
I0
sVHideInputBarFlag
p2622
I0
sVEncryChatRoomId
p2623
g45
sVAttrStatus
p2624
I0
sVSnsFlag
p2625
I0
sVMemberCount
p2626
I0
sVOwnerUin
p2627
I0
sVAlias
p2628
g45
sVSignature
p2629
V\u79c0\u5de2\u7f51\u9009\u88c5\u4fee\uff1a\u6709\u54c1\u8d28\u7684\u4e92\u8054\u7f51\u88c5\u4fee\uff0c\u4e0d\u505a\u5957\u9910\uff0c\u53ea\u505a\u54c1\u8d28\u3002\u79c0\u5de2\u7f51\u5728\u5317\u4eac\u533a\u57df\uff0c\u7edf\u4e00\u62a5\u4ef7\uff0c\u7edf\u4e00\u8f85\u6750\uff0c\u7edf\u4e00\u5de5\u827a\uff0c\u63d0\u4f9b\u4e94\u4e2a\u8282\u70b9\u9a8c\u6536\uff0c\u63d0\u4f9b\u53cc\u4fdd\u9669\u4fdd\u4fee\uff0c\u4e1a\u4e3b\u53ef\u4ee5\u5bf9\u88c5\u4fee\u4eba\u7684\u670d\u52a1\u8fdb\u884c\u6253\u5206\u70b9\u8bc4\uff0c\u4fdd\u4fee\u671f\u5185\u59cb\u7ec8\u4eab\u6709\u533f\u540d\u8ffd\u8bc4\u6743\uff1b\u88c5\u4fee\u4eba\u7684\u53e3\u7891\u53ef\u4ee5\u7d2f\u79ef\uff0c\u4fe1\u7528\u7b49\u7ea7\u7ec8\u8eab\u76f8\u4f34\u3002
p2630
sVContactFlag
p2631
I3
sVNickName
p2632
V\u79c0\u5de2\u9009\u88c5\u4fee
p2633
sVRemarkPYQuanPin
p2634
g45
sVHeadImgUrl
p2635
V/cgi-bin/mmwebwx-bin/webwxgeticon?seq=660210781&username=@fc85f5286638bc5fee2692a70a33691f&skey=@crypt_43ab139a_5213e1e2477146c575d9cc45804e06ae
p2636
sVUin
p2637
I0
sVStarFriend
p2638
I0
sVStatues
p2639
I0
sa(dp2640
VUserName
p2641
V@149db5e5c2b1df1e6d82381606a71f56
p2642
sVCity
p2643
V\u4f5b\u5c71
p2644
sVDisplayName
p2645
g45
sVUniFriend
p2646
I0
sVMemberList
p2647
(lp2648
sVPYQuanPin
p2649
Vzunshangmenchuang
p2650
sVRemarkPYInitial
p2651
g45
sVSex
p2652
I0
sVAppAccountFlag
p2653
I0
sVVerifyFlag
p2654
I24
sVProvince
p2655
V\u5e7f\u4e1c
p2656
sVKeyWord
p2657
Vgh_
p2658
sVRemarkName
p2659
g45
sVPYInitial
p2660
VZSMC
p2661
sVIsOwner
p2662
I0
sVChatRoomId
p2663
I0
sVHideInputBarFlag
p2664
I0
sVEncryChatRoomId
p2665
g45
sVAttrStatus
p2666
I0
sVSnsFlag
p2667
I0
sVMemberCount
p2668
I0
sVOwnerUin
p2669
I0
sVAlias
p2670
g45
sVSignature
p2671
V\u94dd\u5408\u91d1\u95e8\u7a97\u8d44\u8baf\u3001\u5bb6\u5c45\u88c5\u4fee\u3001\u65b0\u54c1\u63a8\u4ecb
p2672
sVContactFlag
p2673
I3
sVNickName
p2674
V\u5c0a\u5c1a\u95e8\u7a97
p2675
sVRemarkPYQuanPin
p2676
g45
sVHeadImgUrl
p2677
V/cgi-bin/mmwebwx-bin/webwxgeticon?seq=660211023&username=@149db5e5c2b1df1e6d82381606a71f56&skey=@crypt_43ab139a_5213e1e2477146c575d9cc45804e06ae
p2678
sVUin
p2679
I0
sVStarFriend
p2680
I0
sVStatues
p2681
I0
sa(dp2682
VUserName
p2683
V@2095fe9550fdf9afe5370f4049692505
p2684
sVCity
p2685
V\u957f\u5b81
p2686
sVDisplayName
p2687
g45
sVUniFriend
p2688
I0
sVMemberList
p2689
(lp2690
sVPYQuanPin
p2691
Vbeiwei56
p2692
sVRemarkPYInitial
p2693
g45
sVSex
p2694
I0
sVAppAccountFlag
p2695
I0
sVVerifyFlag
p2696
I24
sVProvince
p2697
V\u4e0a\u6d77
p2698
sVKeyWord
p2699
Vgh_
p2700
sVRemarkName
p2701
g45
sVPYInitial
p2702
VBW56
p2703
sVIsOwner
p2704
I0
sVChatRoomId
p2705
I0
sVHideInputBarFlag
p2706
I0
sVEncryChatRoomId
p2707
g45
sVAttrStatus
p2708
I0
sVSnsFlag
p2709
I0
sVMemberCount
p2710
I0
sVOwnerUin
p2711
I0
sVAlias
p2712
g45
sVSignature
p2713
V\u5317\u7eac56 [beiwei56.com]\uff0c\u5b9e\u6728\u5bb6\u5c45\u5e03\u9053\u5bb6\uff0c\u81f4\u529b\u4e8e\u63d0\u4f9b\u9ad8\u54c1\u8d28\u7684\u5b9e\u6728\u5bb6\u5177\uff0c\u5e2e\u52a9\u5ba2\u6237\u6253\u9020\u4e00\u4e2a\u7eff\u8272\u3001\u73af\u4fdd\u7684\u5c45\u5bb6\u73af\u5883\u3002
p2714
sVContactFlag
p2715
I3
sVNickName
p2716
V\u5317\u7eac56
p2717
sVRemarkPYQuanPin
p2718
g45
sVHeadImgUrl
p2719
V/cgi-bin/mmwebwx-bin/webwxgeticon?seq=660211164&username=@2095fe9550fdf9afe5370f4049692505&skey=@crypt_43ab139a_5213e1e2477146c575d9cc45804e06ae
p2720
sVUin
p2721
I0
sVStarFriend
p2722
I0
sVStatues
p2723
I0
sa(dp2724
VUserName
p2725
V@df029d8de72ff3440f5b96fe34716f9a
p2726
sVCity
p2727
V\u6c5f\u95e8
p2728
sVDisplayName
p2729
g45
sVUniFriend
p2730
I0
sVMemberList
p2731
(lp2732
sVPYQuanPin
p2733
Vyuanmeizhuangshishejigongchengyouxiangongsi
p2734
sVRemarkPYInitial
p2735
g45
sVSex
p2736
I0
sVAppAccountFlag
p2737
I0
sVVerifyFlag
p2738
I8
sVProvince
p2739
V\u5e7f\u4e1c
p2740
sVKeyWord
p2741
Vgh_
p2742
sVRemarkName
p2743
g45
sVPYInitial
p2744
VYMZSSJGCYXGS
p2745
sVIsOwner
p2746
I0
sVChatRoomId
p2747
I0
sVHideInputBarFlag
p2748
I0
sVEncryChatRoomId
p2749
g45
sVAttrStatus
p2750
I0
sVSnsFlag
p2751
I0
sVMemberCount
p2752
I0
sVOwnerUin
p2753
I0
sVAlias
p2754
g45
sVSignature
p2755
V\u627f\u63a5\u5bb6\u88c5\u3001\u5de5\u88c5\u6837\u677f\u623f\uff0c\u4e13\u4e1a\u56e2\u961f\uff0c\u514d\u8d39\u4e0a\u95e8\u91cf\u623f\uff0c\u5730\u5740\uff1a\u4fdd\u5229\u4e2d\u5b87\u82b1\u56ed\u7965\u548c\u8def25\u53f7112\u94fa\uff0c\u90b1\u751f136 8048 6188
p2756
sVContactFlag
p2757
I3
sVNickName
p2758
V\u5706\u7f8e\u88c5\u9970\u8bbe\u8ba1\u5de5\u7a0b\u6709\u9650\u516c\u53f8
p2759
sVRemarkPYQuanPin
p2760
g45
sVHeadImgUrl
p2761
V/cgi-bin/mmwebwx-bin/webwxgeticon?seq=660211493&username=@df029d8de72ff3440f5b96fe34716f9a&skey=@crypt_43ab139a_5213e1e2477146c575d9cc45804e06ae
p2762
sVUin
p2763
I0
sVStarFriend
p2764
I0
sVStatues
p2765
I0
sa(dp2766
VUserName
p2767
V@254875c23d904e804d6fb8999560a65d
p2768
sVCity
p2769
V\u6c5f\u95e8
p2770
sVDisplayName
p2771
g45
sVUniFriend
p2772
I0
sVMemberList
p2773
(lp2774
sVPYQuanPin
p2775
Vsenrunzhengmudingzhi
p2776
sVRemarkPYInitial
p2777
g45
sVSex
p2778
I0
sVAppAccountFlag
p2779
I0
sVVerifyFlag
p2780
I24
sVProvince
p2781
V\u5e7f\u4e1c
p2782
sVKeyWord
p2783
Vgh_
p2784
sVRemarkName
p2785
g45
sVPYInitial
p2786
VSRZMDZ
p2787
sVIsOwner
p2788
I0
sVChatRoomId
p2789
I0
sVHideInputBarFlag
p2790
I0
sVEncryChatRoomId
p2791
g45
sVAttrStatus
p2792
I0
sVSnsFlag
p2793
I0
sVMemberCount
p2794
I0
sVOwnerUin
p2795
I0
sVAlias
p2796
g45
sVSignature
p2797
V\u68ee\u6da6\u6728\u95e8\u662f\u4e00\u5bb6\u96c6\u7814\u53d1\u3001\u751f\u4ea7\u3001\u9500\u552e\u4e3a\u4e00\u4f53\u7684\u539f\u6728\u95e8\u4f01\u4e1a\uff0c\u516c\u53f8\u66fe\u5148\u540e\u8363\u83b7\u4e2d\u56fd\u539f\u6728\u95e8\u5341\u5927\u54c1\u724c\u3001\u539f\u6728\u95e8\u7b2c\u4e00\u54c1\u724c\u3001\u5168\u56fd\u6728\u95e8\u4e09\u5341\u5f3a\u7b49\u79f0\u53f7\uff0c\u4e3a\u5ba2\u6237\u63d0\u4f9b\u9ad8\u7aef\u7684\u539f\u6728\u95e8\u5b9a\u5236\uff0c\u539f\u6728\u8863\u67dc\u7b49\u6574\u6728\u5bb6\u5c45\u89e3\u51b3\u65b9\u6848\u3002
p2798
sVContactFlag
p2799
I3
sVNickName
p2800
V\u68ee\u6da6\u6574\u6728\u5b9a\u5236
p2801
sVRemarkPYQuanPin
p2802
g45
sVHeadImgUrl
p2803
V/cgi-bin/mmwebwx-bin/webwxgeticon?seq=660211571&username=@254875c23d904e804d6fb8999560a65d&skey=@crypt_43ab139a_5213e1e2477146c575d9cc45804e06ae
p2804
sVUin
p2805
I0
sVStarFriend
p2806
I0
sVStatues
p2807
I0
sa(dp2808
VUserName
p2809
V@bb8afd5df450a7989900cd2021e48593
p2810
sVCity
p2811
V\u6c5f\u95e8
p2812
sVDisplayName
p2813
g45
sVUniFriend
p2814
I0
sVMemberList
p2815
(lp2816
sVPYQuanPin
p2817
Vjiangmenshizhuangshijiancaixingyexiehui
p2818
sVRemarkPYInitial
p2819
g45
sVSex
p2820
I0
sVAppAccountFlag
p2821
I0
sVVerifyFlag
p2822
I24
sVProvince
p2823
V\u5e7f\u4e1c
p2824
sVKeyWord
p2825
Vgh_
p2826
sVRemarkName
p2827
g45
sVPYInitial
p2828
VJMSZSJCXYXH
p2829
sVIsOwner
p2830
I0
sVChatRoomId
p2831
I0
sVHideInputBarFlag
p2832
I0
sVEncryChatRoomId
p2833
g45
sVAttrStatus
p2834
I0
sVSnsFlag
p2835
I0
sVMemberCount
p2836
I0
sVOwnerUin
p2837
I0
sVAlias
p2838
g45
sVSignature
p2839
V\u805a\u96c6\u4e86\u6570\u767e\u5bb6\u56fd\u5185\u5916\u77e5\u540d\u5bb6\u5c45\u5efa\u6750\u54c1\u724c\uff0c\u4ee5\u8bbe\u8ba1\u3001\u7ecf\u8425\u5546\u3001\u96f6\u552e\u4ee3\u7406\u5546\u3001\u88c5\u9970\u516c\u53f8\u3001\u6c5f\u95e8\u5e02\u88c5\u9970\u5efa\u6750\u4f01\u4e1a\u3001\u8fd0\u8425\u5546\u5c06\u4f1a\u901a\u8fc7\u534f\u4f1a\u4e0e\u5730\u4ea7\u754c\u53ca\u76f8\u5173\u884c\u4e1a\u4ea7\u751f\u79ef\u6781\u4e92\u52a8\uff0c\u5171\u540c\u53d1\u5c55\uff0c\u5171\u540c\u81f4\u529b\u4e8e\u4fc3\u8fdb\u6c5f\u95e8\u5e02\u88c5\u9970\u5efa\u6750\u884c\u4e1a\u7684\u5065\u5eb7\u53d1\u5c55\u800c\u52aa\u529b\uff0c\u5171\u540c\u8fce\u63a5\u6c5f\u95e8\u5e02\u88c5\u9970\u5efa\u6750\u4e1a\u7f8e\u597d\u7684\u660e\u5929\u3002
p2840
sVContactFlag
p2841
I3
sVNickName
p2842
V\u6c5f\u95e8\u5e02\u88c5\u9970\u5efa\u6750\u884c\u4e1a\u534f\u4f1a
p2843
sVRemarkPYQuanPin
p2844
g45
sVHeadImgUrl
p2845
V/cgi-bin/mmwebwx-bin/webwxgeticon?seq=660211573&username=@bb8afd5df450a7989900cd2021e48593&skey=@crypt_43ab139a_5213e1e2477146c575d9cc45804e06ae
p2846
sVUin
p2847
I0
sVStarFriend
p2848
I0
sVStatues
p2849
I0
sa(dp2850
VUserName
p2851
V@931d9e46ab0d8f22ea1eef9576a4946e
p2852
sVCity
p2853
V\u6c5f\u95e8
p2854
sVDisplayName
p2855
g45
sVUniFriend
p2856
I0
sVMemberList
p2857
(lp2858
sVPYQuanPin
p2859
Vjiangmenshegong
p2860
sVRemarkPYInitial
p2861
g45
sVSex
p2862
I0
sVAppAccountFlag
p2863
I0
sVVerifyFlag
p2864
I24
sVProvince
p2865
V\u5e7f\u4e1c
p2866
sVKeyWord
p2867
Vgh_
p2868
sVRemarkName
p2869
g45
sVPYInitial
p2870
VJMSG
p2871
sVIsOwner
p2872
I0
sVChatRoomId
p2873
I0
sVHideInputBarFlag
p2874
I0
sVEncryChatRoomId
p2875
g45
sVAttrStatus
p2876
I0
sVSnsFlag
p2877
I0
sVMemberCount
p2878
I0
sVOwnerUin
p2879
I0
sVAlias
p2880
g45
sVSignature
p2881
V\u56e2\u7ed3\u793e\u5de5\uff0c\u53d1\u5c55\u4e13\u4e1a\uff0c\u670d\u52a1\u793e\u4f1a\uff0c\u5171\u521b\u5e78\u798f\uff01
p2882
sVContactFlag
p2883
I3
sVNickName
p2884
V\u6c5f\u95e8\u793e\u5de5
p2885
sVRemarkPYQuanPin
p2886
g45
sVHeadImgUrl
p2887
V/cgi-bin/mmwebwx-bin/webwxgeticon?seq=660211576&username=@931d9e46ab0d8f22ea1eef9576a4946e&skey=@crypt_43ab139a_5213e1e2477146c575d9cc45804e06ae
p2888
sVUin
p2889
I0
sVStarFriend
p2890
I0
sVStatues
p2891
I0
sa(dp2892
VUserName
p2893
V@44f0a7a96af5c3a060db160321f7afa6
p2894
sVCity
p2895
V\u6c5f\u95e8
p2896
sVDisplayName
p2897
g45
sVUniFriend
p2898
I0
sVMemberList
p2899
(lp2900
sVPYQuanPin
p2901
Vjiangmenshijiuleixingyexiehui
p2902
sVRemarkPYInitial
p2903
g45
sVSex
p2904
I0
sVAppAccountFlag
p2905
I0
sVVerifyFlag
p2906
I24
sVProvince
p2907
V\u5e7f\u4e1c
p2908
sVKeyWord
p2909
Vgh_
p2910
sVRemarkName
p2911
g45
sVPYInitial
p2912
VJMSJLXYXH
p2913
sVIsOwner
p2914
I0
sVChatRoomId
p2915
I0
sVHideInputBarFlag
p2916
I0
sVEncryChatRoomId
p2917
g45
sVAttrStatus
p2918
I0
sVSnsFlag
p2919
I0
sVMemberCount
p2920
I0
sVOwnerUin
p2921
I0
sVAlias
p2922
g45
sVSignature
p2923
V\u6c5f\u95e8\u5e02\u9152\u7c7b\u884c\u4e1a\u534f\u4f1a\u6210\u7acb\u4e8e2003\u5e74\uff0c\u76ee\u524d\u534f\u4f1a\u6709\u56e2\u4f53\u4f1a\u5458\u5355\u4f4d430\u5bb6\u3001\u9152\u4e1a\u534f\u4f1a\u5c5e\u4e8e\u793e\u56e2\u7ec4\u7ec7\uff0c\u534f\u4f1a\u7684\u5b97\u65e8\u662f\u52a0\u5f3a\u653f\u5e9c\u4e0e\u4f01\u4e1a\u95f4\u7684\u8054\u7cfb\uff0c\u4e3a\u653f\u5e9c\u670d\u52a1\u3001\u4e3a\u793e\u4f1a\u670d\u52a1\u3001\u4e3a\u4f1a\u5458\u670d\u52a1\uff0c\u7ef4\u62a4\u4f1a\u5458\u7684\u5408\u6cd5\u6743\u76ca\u548c\u516c\u5e73\u7ade\u4e89\uff0c\u4fc3\u8fdb\u672c\u534f\u4f1a\u4e0e\u56fd\u5185\u5916\u540c\u884c\u7684\u4ea4\u6d41\u4e0e\u5408\u4f5c\u3002
p2924
sVContactFlag
p2925
I3
sVNickName
p2926
V\u6c5f\u95e8\u5e02\u9152\u7c7b\u884c\u4e1a\u534f\u4f1a
p2927
sVRemarkPYQuanPin
p2928
g45
sVHeadImgUrl
p2929
V/cgi-bin/mmwebwx-bin/webwxgeticon?seq=660211579&username=@44f0a7a96af5c3a060db160321f7afa6&skey=@crypt_43ab139a_5213e1e2477146c575d9cc45804e06ae
p2930
sVUin
p2931
I0
sVStarFriend
p2932
I0
sVStatues
p2933
I0
sa(dp2934
VUserName
p2935
V@c0c986123320443b8e1557f3ea757a7d
p2936
sVCity
p2937
V\u91d1\u534e
p2938
sVDisplayName
p2939
g45
sVUniFriend
p2940
I0
sVMemberList
p2941
(lp2942
sVPYQuanPin
p2943
Vmenyeshijie
p2944
sVRemarkPYInitial
p2945
g45
sVSex
p2946
I0
sVAppAccountFlag
p2947
I0
sVVerifyFlag
p2948
I8
sVProvince
p2949
V\u6d59\u6c5f
p2950
sVKeyWord
p2951
Vgh_
p2952
sVRemarkName
p2953
g45
sVPYInitial
p2954
VMYSJ
p2955
sVIsOwner
p2956
I0
sVChatRoomId
p2957
I0
sVHideInputBarFlag
p2958
I0
sVEncryChatRoomId
p2959
g45
sVAttrStatus
p2960
I0
sVSnsFlag
p2961
I0
sVMemberCount
p2962
I0
sVOwnerUin
p2963
I0
sVAlias
p2964
g45
sVSignature
p2965
V\u4f53\u9a8c\u4e92\u8054\u7f51+\u5356\u95e8\uff0c\u4e3a\u95e8\u4f01\u548c\u7ecf\u9500\u5546\u63d0\u4f9b\u8d44\u6e90\u6574\u5408\u3001\u54c1\u724c\u5efa\u8bbe\u3001\u5fae\u7f51\u7ad9\u3001\u5fae\u5546\u57ce\u8fd0\u8425\u7b56\u5212\u670d\u52a1\uff01\u4f20\u64ad\u6700\u65b0\u95e8\u4e1a\u8d44\u8baf\uff0c\u81ea\u6211\u5b66\u4e60\u6210\u957f\u3002
p2966
sVContactFlag
p2967
I3
sVNickName
p2968
V\u95e8\u4e1a\u89c6\u754c
p2969
sVRemarkPYQuanPin
p2970
g45
sVHeadImgUrl
p2971
V/cgi-bin/mmwebwx-bin/webwxgeticon?seq=660211752&username=@c0c986123320443b8e1557f3ea757a7d&skey=@crypt_43ab139a_5213e1e2477146c575d9cc45804e06ae
p2972
sVUin
p2973
I0
sVStarFriend
p2974
I0
sVStatues
p2975
I0
sa(dp2976
VUserName
p2977
V@b5faf1f820ac8183c1ee6fc12a1f0f0d
p2978
sVCity
p2979
V\u6c5f\u95e8
p2980
sVDisplayName
p2981
g45
sVUniFriend
p2982
I0
sVMemberList
p2983
(lp2984
sVPYQuanPin
p2985
Vjiangmenshikaixinbaobeimuyingdian
p2986
sVRemarkPYInitial
p2987
g45
sVSex
p2988
I0
sVAppAccountFlag
p2989
I0
sVVerifyFlag
p2990
I8
sVProvince
p2991
V\u5e7f\u4e1c
p2992
sVKeyWord
p2993
Vgh_
p2994
sVRemarkName
p2995
g45
sVPYInitial
p2996
VJMSKXBBMYD
p2997
sVIsOwner
p2998
I0
sVChatRoomId
p2999
I0
sVHideInputBarFlag
p3000
I0
sVEncryChatRoomId
p3001
g45
sVAttrStatus
p3002
I0
sVSnsFlag
p3003
I0
sVMemberCount
p3004
I0
sVOwnerUin
p3005
I0
sVAlias
p3006
g45
sVSignature
p3007
V\u5a74\u513f\u7528\u54c1\u7684\u4ea7\u54c1\u4ecb\u7ecd\u548c\u4fc3\u9500\u4fe1\u606f\u53d1\u5e03\uff0c\u5305\u62ec\u80b2\u513f\u5c0f\u77e5\u8bc6\u53d1\u5e03\u3002
p3008
sVContactFlag
p3009
I3
sVNickName
p3010
V\u6c5f\u95e8\u5e02\u5f00\u5fc3\u5b9d\u8d1d\u6bcd\u5a74\u5e97
p3011
sVRemarkPYQuanPin
p3012
g45
sVHeadImgUrl
p3013
V/cgi-bin/mmwebwx-bin/webwxgeticon?seq=660212689&username=@b5faf1f820ac8183c1ee6fc12a1f0f0d&skey=@crypt_43ab139a_5213e1e2477146c575d9cc45804e06ae
p3014
sVUin
p3015
I0
sVStarFriend
p3016
I0
sVStatues
p3017
I0
sa(dp3018
VUserName
p3019
V@38a3b40b773a91e26490bb5c76bd094c
p3020
sVCity
p3021
V\u6df1\u5733
p3022
sVDisplayName
p3023
g45
sVUniFriend
p3024
I0
sVMemberList
p3025
(lp3026
sVPYQuanPin
p3027
Vjiangmenmuyingzhichuang
p3028
sVRemarkPYInitial
p3029
g45
sVSex
p3030
I0
sVAppAccountFlag
p3031
I0
sVVerifyFlag
p3032
I8
sVProvince
p3033
V\u5e7f\u4e1c
p3034
sVKeyWord
p3035
Vgh_
p3036
sVRemarkName
p3037
g45
sVPYInitial
p3038
VJMMYZC
p3039
sVIsOwner
p3040
I0
sVChatRoomId
p3041
I0
sVHideInputBarFlag
p3042
I0
sVEncryChatRoomId
p3043
g45
sVAttrStatus
p3044
I0
sVSnsFlag
p3045
I0
sVMemberCount
p3046
I0
sVOwnerUin
p3047
I0
sVAlias
p3048
g45
sVSignature
p3049
V\u6c5f\u95e8\u6bcd\u5a74\u4e4b\u7a97\u4f1a\u4e0d\u65ad\u5206\u4eab\u4e30\u5bcc\u7684\u672c\u5730\u6bcd\u5a74\u8d44\u8baf\u3002
p3050
sVContactFlag
p3051
I3
sVNickName
p3052
V\u6c5f\u95e8\u6bcd\u5a74\u4e4b\u7a97
p3053
sVRemarkPYQuanPin
p3054
g45
sVHeadImgUrl
p3055
V/cgi-bin/mmwebwx-bin/webwxgeticon?seq=660212692&username=@38a3b40b773a91e26490bb5c76bd094c&skey=@crypt_43ab139a_5213e1e2477146c575d9cc45804e06ae
p3056
sVUin
p3057
I0
sVStarFriend
p3058
I0
sVStatues
p3059
I0
sa(dp3060
VUserName
p3061
V@b7373a64c0020351c446062f198855e5
p3062
sVCity
p3063
V\u6c5f\u95e8
p3064
sVDisplayName
p3065
g45
sVUniFriend
p3066
I0
sVMemberList
p3067
(lp3068
sVPYQuanPin
p3069
Vjiangmenaiyingdaomuyingbaihuo
p3070
sVRemarkPYInitial
p3071
g45
sVSex
p3072
I0
sVAppAccountFlag
p3073
I0
sVVerifyFlag
p3074
I8
sVProvince
p3075
V\u5e7f\u4e1c
p3076
sVKeyWord
p3077
Vgh_
p3078
sVRemarkName
p3079
g45
sVPYInitial
p3080
VJMAYDMYBH
p3081
sVIsOwner
p3082
I0
sVChatRoomId
p3083
I0
sVHideInputBarFlag
p3084
I0
sVEncryChatRoomId
p3085
g45
sVAttrStatus
p3086
I0
sVSnsFlag
p3087
I0
sVMemberCount
p3088
I0
sVOwnerUin
p3089
I0
sVAlias
p3090
g45
sVSignature
p3091
V\u4e3b\u6253\u5988\u5988\u3001\u5a74\u5e7c\u513f\u4ea7\u54c1\uff01
p3092
sVContactFlag
p3093
I3
sVNickName
p3094
V\u6c5f\u95e8\u7231\u5a74\u5c9b\u6bcd\u5a74\u767e\u8d27
p3095
sVRemarkPYQuanPin
p3096
g45
sVHeadImgUrl
p3097
V/cgi-bin/mmwebwx-bin/webwxgeticon?seq=660212695&username=@b7373a64c0020351c446062f198855e5&skey=@crypt_43ab139a_5213e1e2477146c575d9cc45804e06ae
p3098
sVUin
p3099
I0
sVStarFriend
p3100
I0
sVStatues
p3101
I0
sa(dp3102
VUserName
p3103
V@8198b48353fc75de7d196462fac75bae
p3104
sVCity
p3105
V\u6c5f\u95e8
p3106
sVDisplayName
p3107
g45
sVUniFriend
p3108
I0
sVMemberList
p3109
(lp3110
sVPYQuanPin
p3111
Vjiangmenkeaikeqinmuyingyongpinshenghuoguan
p3112
sVRemarkPYInitial
p3113
g45
sVSex
p3114
I0
sVAppAccountFlag
p3115
I0
sVVerifyFlag
p3116
I8
sVProvince
p3117
V\u5e7f\u4e1c
p3118
sVKeyWord
p3119
Vgh_
p3120
sVRemarkName
p3121
g45
sVPYInitial
p3122
VJMKAKQMYYPSHG
p3123
sVIsOwner
p3124
I0
sVChatRoomId
p3125
I0
sVHideInputBarFlag
p3126
I0
sVEncryChatRoomId
p3127
g45
sVAttrStatus
p3128
I0
sVSnsFlag
p3129
I0
sVMemberCount
p3130
I0
sVOwnerUin
p3131
I0
sVAlias
p3132
g45
sVSignature
p3133
V{\u6c5f\u95e8\u53ef\u7231\u53ef\u4eb2\u6bcd\u5a74\u7528\u54c1\u751f\u6d3b\u9986}\u4e3b\u8425\uff1a\u5a74\u513f\u6cf3\u7597\uff0c\u5404\u5927\u54c1\u724c\u5976\u7c89\uff0c\u5b55\u5987\u5a74\u513f\u751f\u6d3b\u7528\u54c1\uff0c\u7eb8\u5c3f\u88e4\uff0c\u670d\u88c5\uff0c\u73a9\u5177\u7b49\u5a74\u5e7c\u513f\u5b55\u5987\u7528\u54c1\u3002\u5730\u5740\uff1a\u6c5f\u95e8\u5e02\u84ec\u6c5f\u533a\u80b2\u5fb7\u885719\u53f7101\u94fa\uff08\u661f\u661f\u8d85\u7ea7\u5546\u573a\u5bf9\u9762\uff09\u56fa\u8bdd\uff1a0750-3932199
p3134
sVContactFlag
p3135
I3
sVNickName
p3136
V\u6c5f\u95e8\u53ef\u7231\u53ef\u4eb2\u6bcd\u5a74\u7528\u54c1\u751f\u6d3b\u9986
p3137
sVRemarkPYQuanPin
p3138
g45
sVHeadImgUrl
p3139
V/cgi-bin/mmwebwx-bin/webwxgeticon?seq=660212698&username=@8198b48353fc75de7d196462fac75bae&skey=@crypt_43ab139a_5213e1e2477146c575d9cc45804e06ae
p3140
sVUin
p3141
I0
sVStarFriend
p3142
I0
sVStatues
p3143
I0
sa(dp3144
VUserName
p3145
V@f2d2a167df389b41b1b2d834fd8f9450
p3146
sVCity
p3147
g45
sVDisplayName
p3148
g45
sVUniFriend
p3149
I0
sVMemberList
p3150
(lp3151
sVPYQuanPin
p3152
Vjiangmenxibaomuying
p3153
sVRemarkPYInitial
p3154
g45
sVSex
p3155
I0
sVAppAccountFlag
p3156
I0
sVVerifyFlag
p3157
I24
sVProvince
p3158
V\u5e7f\u4e1c
p3159
sVKeyWord
p3160
Vgh_
p3161
sVRemarkName
p3162
g45
sVPYInitial
p3163
VJMXBMY
p3164
sVIsOwner
p3165
I0
sVChatRoomId
p3166
I0
sVHideInputBarFlag
p3167
I0
sVEncryChatRoomId
p3168
g45
sVAttrStatus
p3169
I0
sVSnsFlag
p3170
I0
sVMemberCount
p3171
I0
sVOwnerUin
p3172
I0
sVAlias
p3173
g45
sVSignature
p3174
V\u6b22\u8fce\u5173\u6ce8\u6c5f\u95e8\u559c\u5b9d\u6bcd\u5a74\uff01\u6211\u4eec\u5c06\u8bda\u610f\u4e3a\u5404\u4f4d\u4eb2\u4e0d\u65ad\u732e\u4e0a\u5e97\u94fa\u6700\u65b0\u6d3b\u52a8\uff0c\u4f18\u60e0\u8d44\u4fe1\uff0c\u65b0\u54c1\u63a8\u4ecb\uff0c\u53ca\u80b2\u513f\u4ea4\u6d41\u3002
p3175
sVContactFlag
p3176
I3
sVNickName
p3177
V\u6c5f\u95e8\u559c\u5b9d\u6bcd\u5a74
p3178
sVRemarkPYQuanPin
p3179
g45
sVHeadImgUrl
p3180
V/cgi-bin/mmwebwx-bin/webwxgeticon?seq=660212701&username=@f2d2a167df389b41b1b2d834fd8f9450&skey=@crypt_43ab139a_5213e1e2477146c575d9cc45804e06ae
p3181
sVUin
p3182
I0
sVStarFriend
p3183
I0
sVStatues
p3184
I0
sa(dp3185
VUserName
p3186
V@a4a1d0fc84fbee79e78d4b3f02eddf00
p3187
sVCity
p3188
g45
sVDisplayName
p3189
g45
sVUniFriend
p3190
I0
sVMemberList
p3191
(lp3192
sVPYQuanPin
p3193
Vjiangmenyouyouxiongmuyingwang
p3194
sVRemarkPYInitial
p3195
g45
sVSex
p3196
I0
sVAppAccountFlag
p3197
I0
sVVerifyFlag
p3198
I8
sVProvince
p3199
V\u5e7f\u4e1c
p3200
sVKeyWord
p3201
Vgh_
p3202
sVRemarkName
p3203
g45
sVPYInitial
p3204
VJMYYXMYW
p3205
sVIsOwner
p3206
I0
sVChatRoomId
p3207
I0
sVHideInputBarFlag
p3208
I0
sVEncryChatRoomId
p3209
g45
sVAttrStatus
p3210
I0
sVSnsFlag
p3211
I0
sVMemberCount
p3212
I0
sVOwnerUin
p3213
I0
sVAlias
p3214
g45
sVSignature
p3215
V\u6c5f\u95e8\u4e00\u7ad9\u5f0fO2O\u6bcd\u5a74\u670d\u52a1\u5e73\u53f0\u3002www.yoyobear.com \u6ce8\u518c\u5373\u9001\u60a0\u60a0\u5e0150\u4e2a\uff0c\u53ef\u6362\u53d6\u9650\u91cf\u7248\u60a0\u60a0\u718a\u516c\u4ed4/\u513f\u7ae5\u6444\u5f71\u5238/T\u578b\u7259\u5237/\u65e0\u6846\u753b.....\u7b49\u4e30\u5bcc\u793c\u54c1\u3002\u8be6\u60c5\u54a8\u8be2\uff1a0750-3912580
p3216
sVContactFlag
p3217
I3
sVNickName
p3218
V\u6c5f\u95e8\u60a0\u60a0\u718a\u6bcd\u5a74\u7f51
p3219
sVRemarkPYQuanPin
p3220
g45
sVHeadImgUrl
p3221
V/cgi-bin/mmwebwx-bin/webwxgeticon?seq=660212704&username=@a4a1d0fc84fbee79e78d4b3f02eddf00&skey=@crypt_43ab139a_5213e1e2477146c575d9cc45804e06ae
p3222
sVUin
p3223
I0
sVStarFriend
p3224
I0
sVStatues
p3225
I0
sa(dp3226
VUserName
p3227
V@7428fbd392fdcf5b050a09dc508ae474
p3228
sVCity
p3229
V\u6c5f\u95e8
p3230
sVDisplayName
p3231
g45
sVUniFriend
p3232
I0
sVMemberList
p3233
(lp3234
sVPYQuanPin
p3235
Vliangzhinengshangcheng
p3236
sVRemarkPYInitial
p3237
g45
sVSex
p3238
I0
sVAppAccountFlag
p3239
I0
sVVerifyFlag
p3240
I24
sVProvince
p3241
V\u5e7f\u4e1c
p3242
sVKeyWord
p3243
Vgh_
p3244
sVRemarkName
p3245
g45
sVPYInitial
p3246
VLZNSC
p3247
sVIsOwner
p3248
I0
sVChatRoomId
p3249
I0
sVHideInputBarFlag
p3250
I0
sVEncryChatRoomId
p3251
g45
sVAttrStatus
p3252
I0
sVSnsFlag
p3253
I0
sVMemberCount
p3254
I0
sVOwnerUin
p3255
I0
sVAlias
p3256
g45
sVSignature
p3257
V\u4ea7\u54c1\u9500\u552e
p3258
sVContactFlag
p3259
I3
sVNickName
p3260
V\u4eae\u667a\u80fd\u5546\u57ce
p3261
sVRemarkPYQuanPin
p3262
g45
sVHeadImgUrl
p3263
V/cgi-bin/mmwebwx-bin/webwxgeticon?seq=663181315&username=@7428fbd392fdcf5b050a09dc508ae474&skey=@crypt_43ab139a_5213e1e2477146c575d9cc45804e06ae
p3264
sVUin
p3265
I0
sVStarFriend
p3266
I0
sVStatues
p3267
I0
sa(dp3268
VUserName
p3269
V@f57b069efbe4c8660506061bd7f0eb63
p3270
sVCity
p3271
V\u6df1\u5733
p3272
sVDisplayName
p3273
g45
sVUniFriend
p3274
I0
sVMemberList
p3275
(lp3276
sVPYQuanPin
p3277
VhuanqiumaoyiwangHerostart
p3278
sVRemarkPYInitial
p3279
g45
sVSex
p3280
I0
sVAppAccountFlag
p3281
I0
sVVerifyFlag
p3282
I8
sVProvince
p3283
V\u5e7f\u4e1c
p3284
sVKeyWord
p3285
Vgh_
p3286
sVRemarkName
p3287
g45
sVPYInitial
p3288
VHQMYWHEROSTART
p3289
sVIsOwner
p3290
I0
sVChatRoomId
p3291
I0
sVHideInputBarFlag
p3292
I0
sVEncryChatRoomId
p3293
g45
sVAttrStatus
p3294
I0
sVSnsFlag
p3295
I0
sVMemberCount
p3296
I0
sVOwnerUin
p3297
I0
sVAlias
p3298
g45
sVSignature
p3299
V\u73af\u7403\u8d38\u6613\u7f51herostart.com\u7684\u4f01\u4e1a\u7528\u6237\u670d\u52a1\u548c\u4fe1\u606f\u53d1\u5e03
p3300
sVContactFlag
p3301
I3
sVNickName
p3302
V\u73af\u7403\u8d38\u6613\u7f51Herostart
p3303
sVRemarkPYQuanPin
p3304
g45
sVHeadImgUrl
p3305
V/cgi-bin/mmwebwx-bin/webwxgeticon?seq=663183097&username=@f57b069efbe4c8660506061bd7f0eb63&skey=@crypt_43ab139a_5213e1e2477146c575d9cc45804e06ae
p3306
sVUin
p3307
I0
sVStarFriend
p3308
I0
sVStatues
p3309
I0
sa(dp3310
VUserName
p3311
V@8ec20b72fd7788f29c32ad382e57b3a6
p3312
sVCity
p3313
V\u6ee8\u5dde
p3314
sVDisplayName
p3315
g45
sVUniFriend
p3316
I0
sVMemberList
p3317
(lp3318
sVPYQuanPin
p3319
Vhezhonganzhuang
p3320
sVRemarkPYInitial
p3321
g45
sVSex
p3322
I0
sVAppAccountFlag
p3323
I0
sVVerifyFlag
p3324
I24
sVProvince
p3325
V\u5c71\u4e1c
p3326
sVKeyWord
p3327
Vgh_
p3328
sVRemarkName
p3329
g45
sVPYInitial
p3330
VHZAZ
p3331
sVIsOwner
p3332
I0
sVChatRoomId
p3333
I0
sVHideInputBarFlag
p3334
I0
sVEncryChatRoomId
p3335
g45
sVAttrStatus
p3336
I0
sVSnsFlag
p3337
I0
sVMemberCount
p3338
I0
sVOwnerUin
p3339
I0
sVAlias
p3340
g45
sVSignature
p3341
V\u5546\u5bb6\u5728\u7ebf\u4e0b\u5355\uff0c\u5e08\u5085\u5728\u7ebf\u63a5\u5355\uff0c\u6d88\u8d39\u8005\u5728\u7ebf\u8bc4\u4ef7\u7cfb\u7edf\u3002
p3342
sVContactFlag
p3343
I3
sVNickName
p3344
V\u5408\u4f17\u5b89\u88c5
p3345
sVRemarkPYQuanPin
p3346
g45
sVHeadImgUrl
p3347
V/cgi-bin/mmwebwx-bin/webwxgeticon?seq=663183236&username=@8ec20b72fd7788f29c32ad382e57b3a6&skey=@crypt_43ab139a_5213e1e2477146c575d9cc45804e06ae
p3348
sVUin
p3349
I0
sVStarFriend
p3350
I0
sVStatues
p3351
I0
sa(dp3352
VUserName
p3353
V@df16b1fadba821828974acd00ecc76d1
p3354
sVCity
p3355
V\u5b81\u6ce2
p3356
sVDisplayName
p3357
g45
sVUniFriend
p3358
I0
sVMemberList
p3359
(lp3360
sVPYQuanPin
p3361
Vtuboshushineizhuangxiu
p3362
sVRemarkPYInitial
p3363
g45
sVSex
p3364
I0
sVAppAccountFlag
p3365
I0
sVVerifyFlag
p3366
I24
sVProvince
p3367
V\u6d59\u6c5f
p3368
sVKeyWord
p3369
Vgh_
p3370
sVRemarkName
p3371
g45
sVPYInitial
p3372
VTBSSNZX
p3373
sVIsOwner
p3374
I0
sVChatRoomId
p3375
I0
sVHideInputBarFlag
p3376
I0
sVEncryChatRoomId
p3377
g45
sVAttrStatus
p3378
I0
sVSnsFlag
p3379
I0
sVMemberCount
p3380
I0
sVOwnerUin
p3381
I0
sVAlias
p3382
g45
sVSignature
p3383
V\u571f\u62e8\u9f20\u5ba4\u5185\u88c5\u4fee\u6bcf\u65e5\u4e3a\u60a8\u5206\u4eab\u4f18\u8d28\u88c5\u4fee\u6548\u679c\u56fe\u6848\u4f8b\u548c\u88c5\u4fee\u77e5\u8bc6\u6280\u5de7\uff0c\u66f4\u6709\u6bcf\u65e550\u4e2a\u514d\u8d39\u8bbe\u8ba1\u540d\u989d\u9650\u91cf\u6d3e\u9001\uff0c\u5feb\u6765\u9886\u5427\uff01
p3384
sVContactFlag
p3385
I3
sVNickName
p3386
V\u571f\u62e8\u9f20\u5ba4\u5185\u88c5\u4fee
p3387
sVRemarkPYQuanPin
p3388
g45
sVHeadImgUrl
p3389
V/cgi-bin/mmwebwx-bin/webwxgeticon?seq=660210381&username=@df16b1fadba821828974acd00ecc76d1&skey=@crypt_43ab139a_5213e1e2477146c575d9cc45804e06ae
p3390
sVUin
p3391
I0
sVStarFriend
p3392
I0
sVStatues
p3393
I0
sassS'loginInfo'
p3394
(dp3395
S'SyncKey'
p3396
(dp3397
VCount
p3398
I8
sVList
p3399
(lp3400
(dp3401
VVal
p3402
I663193238
sVKey
p3403
I1
sa(dp3404
VVal
p3405
I663193359
sVKey
p3406
I2
sa(dp3407
VVal
p3408
I663193222
sVKey
p3409
I3
sa(dp3410
VVal
p3411
I663180104
sVKey
p3412
I11
sa(dp3413
VVal
p3414
I663180104
sVKey
p3415
I13
sa(dp3416
VVal
p3417
I1509521515
sVKey
p3418
I201
sa(dp3419
VVal
p3420
I1509505275
sVKey
p3421
I1000
sa(dp3422
VVal
p3423
I1509497293
sVKey
p3424
I1001
sassS'syncUrl'
p3425
S'https://webpush.wx2.qq.com/cgi-bin/mmwebwx-bin'
p3426
sS'skey'
p3427
V@crypt_43ab139a_5213e1e2477146c575d9cc45804e06ae
p3428
sS'wxuin'
p3429
V915021977
p3430
sS'synckey'
p3431
S'1_663193238|2_663193359|3_663193222|11_663180104|13_663180104|201_1509521515|1000_1509505275|1001_1509497293'
p3432
sS'url'
p3433
Vhttps://wx2.qq.com/cgi-bin/mmwebwx-bin
p3434
sS'pass_ticket'
p3435
VGJYLgNHe2nVUBelZREo8azqy4TCEr47i8KrzrxEWbVLzjFcEp8c32O2KvVKmajy3
p3436
sS'wxsid'
p3437
VsxRSe3JAGEaCL2Jx
p3438
sS'BaseRequest'
p3439
(dp3440
S'Sid'
p3441
g3438
sS'Skey'
p3442
g3428
sS'DeviceID'
p3443
g3436
sg47
g3430
ssS'deviceid'
p3444
S'e488740057653240'
p3445
sS'fileUrl'
p3446
S'https://file.wx2.qq.com/cgi-bin/mmwebwx-bin'
p3447
sS'InviteStartCount'
p3448
I40
sS'User'
p3449
g35
ss.